# command-line-arguments
"".LeadingZeros<1> STEXT nosplit size=33 args=0x10 locals=0x0 funcid=0x0
	0x0000 00000 (/home/laijh/go/src/source-notes/go1.16/test/codegen/mathbits.go:15)	TEXT	"".LeadingZeros(SB), NOSPLIT|ABIInternal, $0-16
	0x0000 00000 (/home/laijh/go/src/source-notes/go1.16/test/codegen/mathbits.go:15)	FUNCDATA	$0, gclocals·33cdeccccebe80329f1fdbee7f5874cb(SB)
	0x0000 00000 (/home/laijh/go/src/source-notes/go1.16/test/codegen/mathbits.go:15)	FUNCDATA	$1, gclocals·33cdeccccebe80329f1fdbee7f5874cb(SB)
	0x0000 00000 (/home/laijh/go/src/source-notes/go1.16/test/codegen/mathbits.go:21)	MOVQ	"".n+8(SP), AX
	0x0005 00005 (/home/laijh/go/src/source-notes/go1.16/test/codegen/mathbits.go:21)	BSRQ	AX, AX
	0x0009 00009 (<unknown line number>)	NOP
	0x0009 00009 (/home/laijh/go/src/source-notes/go1.16/test/codegen/mathbits.go:21)	MOVQ	$-1, CX
	0x0010 00016 (/home/laijh/go/src/source-notes/go1.16/test/codegen/mathbits.go:21)	CMOVQEQ	CX, AX
	0x0014 00020 (/home/laijh/go/src/source-notes/go1.16/test/codegen/mathbits.go:21)	ADDQ	$-63, AX
	0x0018 00024 (/home/laijh/go/src/source-notes/go1.16/test/codegen/mathbits.go:21)	NEGQ	AX
	0x001b 00027 (/home/laijh/go/src/source-notes/go1.16/test/codegen/mathbits.go:21)	MOVQ	AX, "".~r1+16(SP)
	0x0020 00032 (/home/laijh/go/src/source-notes/go1.16/test/codegen/mathbits.go:21)	RET
	0x0000 48 8b 44 24 08 48 0f bd c0 48 c7 c1 ff ff ff ff  H.D$.H...H......
	0x0010 48 0f 44 c1 48 83 c0 c1 48 f7 d8 48 89 44 24 10  H.D.H...H..H.D$.
	0x0020 c3                                               .
"".LeadingZeros64<1> STEXT nosplit size=33 args=0x10 locals=0x0 funcid=0x0
	0x0000 00000 (/home/laijh/go/src/source-notes/go1.16/test/codegen/mathbits.go:24)	TEXT	"".LeadingZeros64(SB), NOSPLIT|ABIInternal, $0-16
	0x0000 00000 (/home/laijh/go/src/source-notes/go1.16/test/codegen/mathbits.go:24)	FUNCDATA	$0, gclocals·33cdeccccebe80329f1fdbee7f5874cb(SB)
	0x0000 00000 (/home/laijh/go/src/source-notes/go1.16/test/codegen/mathbits.go:24)	FUNCDATA	$1, gclocals·33cdeccccebe80329f1fdbee7f5874cb(SB)
	0x0000 00000 (/home/laijh/go/src/source-notes/go1.16/test/codegen/mathbits.go:30)	MOVQ	"".n+8(SP), AX
	0x0005 00005 (/home/laijh/go/src/source-notes/go1.16/test/codegen/mathbits.go:30)	BSRQ	AX, AX
	0x0009 00009 (<unknown line number>)	NOP
	0x0009 00009 (/home/laijh/go/src/source-notes/go1.16/test/codegen/mathbits.go:30)	MOVQ	$-1, CX
	0x0010 00016 (/home/laijh/go/src/source-notes/go1.16/test/codegen/mathbits.go:30)	CMOVQEQ	CX, AX
	0x0014 00020 (/home/laijh/go/src/source-notes/go1.16/test/codegen/mathbits.go:30)	ADDQ	$-63, AX
	0x0018 00024 (/home/laijh/go/src/source-notes/go1.16/test/codegen/mathbits.go:30)	NEGQ	AX
	0x001b 00027 (/home/laijh/go/src/source-notes/go1.16/test/codegen/mathbits.go:30)	MOVQ	AX, "".~r1+16(SP)
	0x0020 00032 (/home/laijh/go/src/source-notes/go1.16/test/codegen/mathbits.go:30)	RET
	0x0000 48 8b 44 24 08 48 0f bd c0 48 c7 c1 ff ff ff ff  H.D$.H...H......
	0x0010 48 0f 44 c1 48 83 c0 c1 48 f7 d8 48 89 44 24 10  H.D.H...H..H.D$.
	0x0020 c3                                               .
"".LeadingZeros32<1> STEXT nosplit size=29 args=0x10 locals=0x0 funcid=0x0
	0x0000 00000 (/home/laijh/go/src/source-notes/go1.16/test/codegen/mathbits.go:33)	TEXT	"".LeadingZeros32(SB), NOSPLIT|ABIInternal, $0-16
	0x0000 00000 (/home/laijh/go/src/source-notes/go1.16/test/codegen/mathbits.go:33)	FUNCDATA	$0, gclocals·33cdeccccebe80329f1fdbee7f5874cb(SB)
	0x0000 00000 (/home/laijh/go/src/source-notes/go1.16/test/codegen/mathbits.go:33)	FUNCDATA	$1, gclocals·33cdeccccebe80329f1fdbee7f5874cb(SB)
	0x0000 00000 (/home/laijh/go/src/source-notes/go1.16/test/codegen/mathbits.go:39)	MOVL	"".n+8(SP), AX
	0x0004 00004 (/home/laijh/go/src/source-notes/go1.16/test/codegen/mathbits.go:39)	LEAQ	(AX)(AX*1), AX
	0x0008 00008 (/home/laijh/go/src/source-notes/go1.16/test/codegen/mathbits.go:39)	LEAQ	1(AX), AX
	0x000c 00012 (/home/laijh/go/src/source-notes/go1.16/test/codegen/mathbits.go:39)	BSRQ	AX, AX
	0x0010 00016 (<unknown line number>)	NOP
	0x0010 00016 (/home/laijh/go/src/source-notes/go1.16/test/codegen/mathbits.go:39)	ADDQ	$-32, AX
	0x0014 00020 (/home/laijh/go/src/source-notes/go1.16/test/codegen/mathbits.go:39)	NEGQ	AX
	0x0017 00023 (/home/laijh/go/src/source-notes/go1.16/test/codegen/mathbits.go:39)	MOVQ	AX, "".~r1+16(SP)
	0x001c 00028 (/home/laijh/go/src/source-notes/go1.16/test/codegen/mathbits.go:39)	RET
	0x0000 8b 44 24 08 48 8d 04 00 48 8d 40 01 48 0f bd c0  .D$.H...H.@.H...
	0x0010 48 83 c0 e0 48 f7 d8 48 89 44 24 10 c3           H...H..H.D$..
"".LeadingZeros16<1> STEXT nosplit size=27 args=0x10 locals=0x0 funcid=0x0
	0x0000 00000 (/home/laijh/go/src/source-notes/go1.16/test/codegen/mathbits.go:42)	TEXT	"".LeadingZeros16(SB), NOSPLIT|ABIInternal, $0-16
	0x0000 00000 (/home/laijh/go/src/source-notes/go1.16/test/codegen/mathbits.go:42)	FUNCDATA	$0, gclocals·33cdeccccebe80329f1fdbee7f5874cb(SB)
	0x0000 00000 (/home/laijh/go/src/source-notes/go1.16/test/codegen/mathbits.go:42)	FUNCDATA	$1, gclocals·33cdeccccebe80329f1fdbee7f5874cb(SB)
	0x0000 00000 (<unknown line number>)	NOP
	0x0000 00000 (/home/laijh/go/src/source-notes/go1.16/test/codegen/mathbits.go:48)	MOVWLZX	"".n+8(SP), AX
	0x0005 00005 (/home/laijh/go/src/source-notes/go1.16/test/codegen/mathbits.go:48)	LEAL	(AX)(AX*1), AX
	0x0008 00008 (/home/laijh/go/src/source-notes/go1.16/test/codegen/mathbits.go:48)	LEAL	1(AX), AX
	0x000b 00011 (/home/laijh/go/src/source-notes/go1.16/test/codegen/mathbits.go:48)	BSRL	AX, AX
	0x000e 00014 (/home/laijh/go/src/source-notes/go1.16/test/codegen/mathbits.go:48)	ADDQ	$-16, AX
	0x0012 00018 (/home/laijh/go/src/source-notes/go1.16/test/codegen/mathbits.go:48)	NEGQ	AX
	0x0015 00021 (/home/laijh/go/src/source-notes/go1.16/test/codegen/mathbits.go:48)	MOVQ	AX, "".~r1+16(SP)
	0x001a 00026 (/home/laijh/go/src/source-notes/go1.16/test/codegen/mathbits.go:48)	RET
	0x0000 0f b7 44 24 08 8d 04 00 8d 40 01 0f bd c0 48 83  ..D$.....@....H.
	0x0010 c0 f0 48 f7 d8 48 89 44 24 10 c3                 ..H..H.D$..
"".LeadingZeros8<1> STEXT nosplit size=27 args=0x10 locals=0x0 funcid=0x0
	0x0000 00000 (/home/laijh/go/src/source-notes/go1.16/test/codegen/mathbits.go:51)	TEXT	"".LeadingZeros8(SB), NOSPLIT|ABIInternal, $0-16
	0x0000 00000 (/home/laijh/go/src/source-notes/go1.16/test/codegen/mathbits.go:51)	FUNCDATA	$0, gclocals·33cdeccccebe80329f1fdbee7f5874cb(SB)
	0x0000 00000 (/home/laijh/go/src/source-notes/go1.16/test/codegen/mathbits.go:51)	FUNCDATA	$1, gclocals·33cdeccccebe80329f1fdbee7f5874cb(SB)
	0x0000 00000 (<unknown line number>)	NOP
	0x0000 00000 (/home/laijh/go/src/source-notes/go1.16/test/codegen/mathbits.go:57)	MOVBLZX	"".n+8(SP), AX
	0x0005 00005 (/home/laijh/go/src/source-notes/go1.16/test/codegen/mathbits.go:57)	LEAL	(AX)(AX*1), AX
	0x0008 00008 (/home/laijh/go/src/source-notes/go1.16/test/codegen/mathbits.go:57)	LEAL	1(AX), AX
	0x000b 00011 (/home/laijh/go/src/source-notes/go1.16/test/codegen/mathbits.go:57)	BSRL	AX, AX
	0x000e 00014 (/home/laijh/go/src/source-notes/go1.16/test/codegen/mathbits.go:57)	ADDQ	$-8, AX
	0x0012 00018 (/home/laijh/go/src/source-notes/go1.16/test/codegen/mathbits.go:57)	NEGQ	AX
	0x0015 00021 (/home/laijh/go/src/source-notes/go1.16/test/codegen/mathbits.go:57)	MOVQ	AX, "".~r1+16(SP)
	0x001a 00026 (/home/laijh/go/src/source-notes/go1.16/test/codegen/mathbits.go:57)	RET
	0x0000 0f b6 44 24 08 8d 04 00 8d 40 01 0f bd c0 48 83  ..D$.....@....H.
	0x0010 c0 f8 48 f7 d8 48 89 44 24 10 c3                 ..H..H.D$..
"".Len<1> STEXT nosplit size=29 args=0x10 locals=0x0 funcid=0x0
	0x0000 00000 (/home/laijh/go/src/source-notes/go1.16/test/codegen/mathbits.go:64)	TEXT	"".Len(SB), NOSPLIT|ABIInternal, $0-16
	0x0000 00000 (/home/laijh/go/src/source-notes/go1.16/test/codegen/mathbits.go:64)	FUNCDATA	$0, gclocals·33cdeccccebe80329f1fdbee7f5874cb(SB)
	0x0000 00000 (/home/laijh/go/src/source-notes/go1.16/test/codegen/mathbits.go:64)	FUNCDATA	$1, gclocals·33cdeccccebe80329f1fdbee7f5874cb(SB)
	0x0000 00000 (/home/laijh/go/src/source-notes/go1.16/test/codegen/mathbits.go:70)	MOVQ	"".n+8(SP), AX
	0x0005 00005 (/home/laijh/go/src/source-notes/go1.16/test/codegen/mathbits.go:70)	BSRQ	AX, AX
	0x0009 00009 (/home/laijh/go/src/source-notes/go1.16/test/codegen/mathbits.go:70)	MOVQ	$-1, CX
	0x0010 00016 (/home/laijh/go/src/source-notes/go1.16/test/codegen/mathbits.go:70)	CMOVQEQ	CX, AX
	0x0014 00020 (/home/laijh/go/src/source-notes/go1.16/test/codegen/mathbits.go:70)	INCQ	AX
	0x0017 00023 (/home/laijh/go/src/source-notes/go1.16/test/codegen/mathbits.go:70)	MOVQ	AX, "".~r1+16(SP)
	0x001c 00028 (/home/laijh/go/src/source-notes/go1.16/test/codegen/mathbits.go:70)	RET
	0x0000 48 8b 44 24 08 48 0f bd c0 48 c7 c1 ff ff ff ff  H.D$.H...H......
	0x0010 48 0f 44 c1 48 ff c0 48 89 44 24 10 c3           H.D.H..H.D$..
"".Len64<1> STEXT nosplit size=29 args=0x10 locals=0x0 funcid=0x0
	0x0000 00000 (/home/laijh/go/src/source-notes/go1.16/test/codegen/mathbits.go:73)	TEXT	"".Len64(SB), NOSPLIT|ABIInternal, $0-16
	0x0000 00000 (/home/laijh/go/src/source-notes/go1.16/test/codegen/mathbits.go:73)	FUNCDATA	$0, gclocals·33cdeccccebe80329f1fdbee7f5874cb(SB)
	0x0000 00000 (/home/laijh/go/src/source-notes/go1.16/test/codegen/mathbits.go:73)	FUNCDATA	$1, gclocals·33cdeccccebe80329f1fdbee7f5874cb(SB)
	0x0000 00000 (/home/laijh/go/src/source-notes/go1.16/test/codegen/mathbits.go:81)	MOVQ	"".n+8(SP), AX
	0x0005 00005 (/home/laijh/go/src/source-notes/go1.16/test/codegen/mathbits.go:81)	BSRQ	AX, AX
	0x0009 00009 (/home/laijh/go/src/source-notes/go1.16/test/codegen/mathbits.go:81)	MOVQ	$-1, CX
	0x0010 00016 (/home/laijh/go/src/source-notes/go1.16/test/codegen/mathbits.go:81)	CMOVQEQ	CX, AX
	0x0014 00020 (/home/laijh/go/src/source-notes/go1.16/test/codegen/mathbits.go:81)	INCQ	AX
	0x0017 00023 (/home/laijh/go/src/source-notes/go1.16/test/codegen/mathbits.go:81)	MOVQ	AX, "".~r1+16(SP)
	0x001c 00028 (/home/laijh/go/src/source-notes/go1.16/test/codegen/mathbits.go:81)	RET
	0x0000 48 8b 44 24 08 48 0f bd c0 48 c7 c1 ff ff ff ff  H.D$.H...H......
	0x0010 48 0f 44 c1 48 ff c0 48 89 44 24 10 c3           H.D.H..H.D$..
"".SubFromLen64<1> STEXT nosplit size=33 args=0x10 locals=0x0 funcid=0x0
	0x0000 00000 (/home/laijh/go/src/source-notes/go1.16/test/codegen/mathbits.go:84)	TEXT	"".SubFromLen64(SB), NOSPLIT|ABIInternal, $0-16
	0x0000 00000 (/home/laijh/go/src/source-notes/go1.16/test/codegen/mathbits.go:84)	FUNCDATA	$0, gclocals·33cdeccccebe80329f1fdbee7f5874cb(SB)
	0x0000 00000 (/home/laijh/go/src/source-notes/go1.16/test/codegen/mathbits.go:84)	FUNCDATA	$1, gclocals·33cdeccccebe80329f1fdbee7f5874cb(SB)
	0x0000 00000 (/home/laijh/go/src/source-notes/go1.16/test/codegen/mathbits.go:87)	MOVQ	"".n+8(SP), AX
	0x0005 00005 (/home/laijh/go/src/source-notes/go1.16/test/codegen/mathbits.go:87)	BSRQ	AX, AX
	0x0009 00009 (/home/laijh/go/src/source-notes/go1.16/test/codegen/mathbits.go:87)	MOVQ	$-1, CX
	0x0010 00016 (/home/laijh/go/src/source-notes/go1.16/test/codegen/mathbits.go:87)	CMOVQEQ	CX, AX
	0x0014 00020 (/home/laijh/go/src/source-notes/go1.16/test/codegen/mathbits.go:87)	ADDQ	$-63, AX
	0x0018 00024 (/home/laijh/go/src/source-notes/go1.16/test/codegen/mathbits.go:87)	NEGQ	AX
	0x001b 00027 (/home/laijh/go/src/source-notes/go1.16/test/codegen/mathbits.go:87)	MOVQ	AX, "".~r1+16(SP)
	0x0020 00032 (/home/laijh/go/src/source-notes/go1.16/test/codegen/mathbits.go:87)	RET
	0x0000 48 8b 44 24 08 48 0f bd c0 48 c7 c1 ff ff ff ff  H.D$.H...H......
	0x0010 48 0f 44 c1 48 83 c0 c1 48 f7 d8 48 89 44 24 10  H.D.H...H..H.D$.
	0x0020 c3                                               .
"".Len32<1> STEXT nosplit size=22 args=0x10 locals=0x0 funcid=0x0
	0x0000 00000 (/home/laijh/go/src/source-notes/go1.16/test/codegen/mathbits.go:90)	TEXT	"".Len32(SB), NOSPLIT|ABIInternal, $0-16
	0x0000 00000 (/home/laijh/go/src/source-notes/go1.16/test/codegen/mathbits.go:90)	FUNCDATA	$0, gclocals·33cdeccccebe80329f1fdbee7f5874cb(SB)
	0x0000 00000 (/home/laijh/go/src/source-notes/go1.16/test/codegen/mathbits.go:90)	FUNCDATA	$1, gclocals·33cdeccccebe80329f1fdbee7f5874cb(SB)
	0x0000 00000 (/home/laijh/go/src/source-notes/go1.16/test/codegen/mathbits.go:96)	MOVL	"".n+8(SP), AX
	0x0004 00004 (/home/laijh/go/src/source-notes/go1.16/test/codegen/mathbits.go:96)	LEAQ	(AX)(AX*1), AX
	0x0008 00008 (/home/laijh/go/src/source-notes/go1.16/test/codegen/mathbits.go:96)	LEAQ	1(AX), AX
	0x000c 00012 (/home/laijh/go/src/source-notes/go1.16/test/codegen/mathbits.go:96)	BSRQ	AX, AX
	0x0010 00016 (/home/laijh/go/src/source-notes/go1.16/test/codegen/mathbits.go:96)	MOVQ	AX, "".~r1+16(SP)
	0x0015 00021 (/home/laijh/go/src/source-notes/go1.16/test/codegen/mathbits.go:96)	RET
	0x0000 8b 44 24 08 48 8d 04 00 48 8d 40 01 48 0f bd c0  .D$.H...H.@.H...
	0x0010 48 89 44 24 10 c3                                H.D$..
"".Len16<1> STEXT nosplit size=20 args=0x10 locals=0x0 funcid=0x0
	0x0000 00000 (/home/laijh/go/src/source-notes/go1.16/test/codegen/mathbits.go:99)	TEXT	"".Len16(SB), NOSPLIT|ABIInternal, $0-16
	0x0000 00000 (/home/laijh/go/src/source-notes/go1.16/test/codegen/mathbits.go:99)	FUNCDATA	$0, gclocals·33cdeccccebe80329f1fdbee7f5874cb(SB)
	0x0000 00000 (/home/laijh/go/src/source-notes/go1.16/test/codegen/mathbits.go:99)	FUNCDATA	$1, gclocals·33cdeccccebe80329f1fdbee7f5874cb(SB)
	0x0000 00000 (/home/laijh/go/src/source-notes/go1.16/test/codegen/mathbits.go:105)	MOVWLZX	"".n+8(SP), AX
	0x0005 00005 (/home/laijh/go/src/source-notes/go1.16/test/codegen/mathbits.go:105)	LEAL	(AX)(AX*1), AX
	0x0008 00008 (/home/laijh/go/src/source-notes/go1.16/test/codegen/mathbits.go:105)	LEAL	1(AX), AX
	0x000b 00011 (/home/laijh/go/src/source-notes/go1.16/test/codegen/mathbits.go:105)	BSRL	AX, AX
	0x000e 00014 (/home/laijh/go/src/source-notes/go1.16/test/codegen/mathbits.go:105)	MOVQ	AX, "".~r1+16(SP)
	0x0013 00019 (/home/laijh/go/src/source-notes/go1.16/test/codegen/mathbits.go:105)	RET
	0x0000 0f b7 44 24 08 8d 04 00 8d 40 01 0f bd c0 48 89  ..D$.....@....H.
	0x0010 44 24 10 c3                                      D$..
"".Len8<1> STEXT nosplit size=20 args=0x10 locals=0x0 funcid=0x0
	0x0000 00000 (/home/laijh/go/src/source-notes/go1.16/test/codegen/mathbits.go:108)	TEXT	"".Len8(SB), NOSPLIT|ABIInternal, $0-16
	0x0000 00000 (/home/laijh/go/src/source-notes/go1.16/test/codegen/mathbits.go:108)	FUNCDATA	$0, gclocals·33cdeccccebe80329f1fdbee7f5874cb(SB)
	0x0000 00000 (/home/laijh/go/src/source-notes/go1.16/test/codegen/mathbits.go:108)	FUNCDATA	$1, gclocals·33cdeccccebe80329f1fdbee7f5874cb(SB)
	0x0000 00000 (/home/laijh/go/src/source-notes/go1.16/test/codegen/mathbits.go:114)	MOVBLZX	"".n+8(SP), AX
	0x0005 00005 (/home/laijh/go/src/source-notes/go1.16/test/codegen/mathbits.go:114)	LEAL	(AX)(AX*1), AX
	0x0008 00008 (/home/laijh/go/src/source-notes/go1.16/test/codegen/mathbits.go:114)	LEAL	1(AX), AX
	0x000b 00011 (/home/laijh/go/src/source-notes/go1.16/test/codegen/mathbits.go:114)	BSRL	AX, AX
	0x000e 00014 (/home/laijh/go/src/source-notes/go1.16/test/codegen/mathbits.go:114)	MOVQ	AX, "".~r1+16(SP)
	0x0013 00019 (/home/laijh/go/src/source-notes/go1.16/test/codegen/mathbits.go:114)	RET
	0x0000 0f b6 44 24 08 8d 04 00 8d 40 01 0f bd c0 48 89  ..D$.....@....H.
	0x0010 44 24 10 c3                                      D$..
"".OnesCount<1> STEXT size=95 args=0x10 locals=0x18 funcid=0x0
	0x0000 00000 (/home/laijh/go/src/source-notes/go1.16/test/codegen/mathbits.go:122)	TEXT	"".OnesCount(SB), ABIInternal, $24-16
	0x0000 00000 (/home/laijh/go/src/source-notes/go1.16/test/codegen/mathbits.go:122)	MOVQ	(TLS), CX
	0x0009 00009 (/home/laijh/go/src/source-notes/go1.16/test/codegen/mathbits.go:122)	CMPQ	SP, 16(CX)
	0x000d 00013 (/home/laijh/go/src/source-notes/go1.16/test/codegen/mathbits.go:122)	PCDATA	$0, $-2
	0x000d 00013 (/home/laijh/go/src/source-notes/go1.16/test/codegen/mathbits.go:122)	JLS	88
	0x000f 00015 (/home/laijh/go/src/source-notes/go1.16/test/codegen/mathbits.go:122)	PCDATA	$0, $-1
	0x000f 00015 (/home/laijh/go/src/source-notes/go1.16/test/codegen/mathbits.go:122)	SUBQ	$24, SP
	0x0013 00019 (/home/laijh/go/src/source-notes/go1.16/test/codegen/mathbits.go:122)	MOVQ	BP, 16(SP)
	0x0018 00024 (/home/laijh/go/src/source-notes/go1.16/test/codegen/mathbits.go:122)	LEAQ	16(SP), BP
	0x001d 00029 (/home/laijh/go/src/source-notes/go1.16/test/codegen/mathbits.go:122)	FUNCDATA	$0, gclocals·33cdeccccebe80329f1fdbee7f5874cb(SB)
	0x001d 00029 (/home/laijh/go/src/source-notes/go1.16/test/codegen/mathbits.go:122)	FUNCDATA	$1, gclocals·33cdeccccebe80329f1fdbee7f5874cb(SB)
	0x001d 00029 (/home/laijh/go/src/source-notes/go1.16/test/codegen/mathbits.go:122)	MOVBQZX	runtime.x86HasPOPCNT(SB), AX
	0x0025 00037 (/home/laijh/go/src/source-notes/go1.16/test/codegen/mathbits.go:122)	TESTQ	AX, AX
	0x0028 00040 (/home/laijh/go/src/source-notes/go1.16/test/codegen/mathbits.go:129)	JEQ	67
	0x002a 00042 (/home/laijh/go/src/source-notes/go1.16/test/codegen/mathbits.go:129)	MOVQ	"".n+32(SP), AX
	0x002f 00047 (/home/laijh/go/src/source-notes/go1.16/test/codegen/mathbits.go:129)	POPCNTQ	AX, AX
	0x0034 00052 (/home/laijh/go/src/source-notes/go1.16/test/codegen/mathbits.go:129)	MOVQ	AX, "".~r1+40(SP)
	0x0039 00057 (/home/laijh/go/src/source-notes/go1.16/test/codegen/mathbits.go:129)	MOVQ	16(SP), BP
	0x003e 00062 (/home/laijh/go/src/source-notes/go1.16/test/codegen/mathbits.go:129)	ADDQ	$24, SP
	0x0042 00066 (/home/laijh/go/src/source-notes/go1.16/test/codegen/mathbits.go:129)	RET
	0x0043 00067 (/home/laijh/go/src/source-notes/go1.16/test/codegen/mathbits.go:129)	MOVQ	"".n+32(SP), AX
	0x0048 00072 (/home/laijh/go/src/source-notes/go1.16/test/codegen/mathbits.go:129)	MOVQ	AX, (SP)
	0x004c 00076 (/home/laijh/go/src/source-notes/go1.16/test/codegen/mathbits.go:129)	PCDATA	$1, $0
	0x004c 00076 (/home/laijh/go/src/source-notes/go1.16/test/codegen/mathbits.go:129)	CALL	math/bits.OnesCount(SB)
	0x0051 00081 (/home/laijh/go/src/source-notes/go1.16/test/codegen/mathbits.go:129)	MOVQ	8(SP), AX
	0x0056 00086 (/home/laijh/go/src/source-notes/go1.16/test/codegen/mathbits.go:129)	JMP	52
	0x0058 00088 (/home/laijh/go/src/source-notes/go1.16/test/codegen/mathbits.go:129)	NOP
	0x0058 00088 (/home/laijh/go/src/source-notes/go1.16/test/codegen/mathbits.go:122)	PCDATA	$1, $-1
	0x0058 00088 (/home/laijh/go/src/source-notes/go1.16/test/codegen/mathbits.go:122)	PCDATA	$0, $-2
	0x0058 00088 (/home/laijh/go/src/source-notes/go1.16/test/codegen/mathbits.go:122)	CALL	runtime.morestack_noctxt(SB)
	0x005d 00093 (/home/laijh/go/src/source-notes/go1.16/test/codegen/mathbits.go:122)	PCDATA	$0, $-1
	0x005d 00093 (/home/laijh/go/src/source-notes/go1.16/test/codegen/mathbits.go:122)	JMP	0
	0x0000 64 48 8b 0c 25 00 00 00 00 48 3b 61 10 76 49 48  dH..%....H;a.vIH
	0x0010 83 ec 18 48 89 6c 24 10 48 8d 6c 24 10 48 0f b6  ...H.l$.H.l$.H..
	0x0020 05 00 00 00 00 48 85 c0 74 19 48 8b 44 24 20 f3  .....H..t.H.D$ .
	0x0030 48 0f b8 c0 48 89 44 24 28 48 8b 6c 24 10 48 83  H...H.D$(H.l$.H.
	0x0040 c4 18 c3 48 8b 44 24 20 48 89 04 24 e8 00 00 00  ...H.D$ H..$....
	0x0050 00 48 8b 44 24 08 eb dc e8 00 00 00 00 eb a1     .H.D$..........
	rel 5+4 t=17 TLS+0
	rel 33+4 t=16 runtime.x86HasPOPCNT<0>+0
	rel 77+4 t=8 math/bits.OnesCount<1>+0
	rel 89+4 t=8 runtime.morestack_noctxt<0>+0
"".OnesCount64<1> STEXT size=95 args=0x10 locals=0x18 funcid=0x0
	0x0000 00000 (/home/laijh/go/src/source-notes/go1.16/test/codegen/mathbits.go:133)	TEXT	"".OnesCount64(SB), ABIInternal, $24-16
	0x0000 00000 (/home/laijh/go/src/source-notes/go1.16/test/codegen/mathbits.go:133)	MOVQ	(TLS), CX
	0x0009 00009 (/home/laijh/go/src/source-notes/go1.16/test/codegen/mathbits.go:133)	CMPQ	SP, 16(CX)
	0x000d 00013 (/home/laijh/go/src/source-notes/go1.16/test/codegen/mathbits.go:133)	PCDATA	$0, $-2
	0x000d 00013 (/home/laijh/go/src/source-notes/go1.16/test/codegen/mathbits.go:133)	JLS	88
	0x000f 00015 (/home/laijh/go/src/source-notes/go1.16/test/codegen/mathbits.go:133)	PCDATA	$0, $-1
	0x000f 00015 (/home/laijh/go/src/source-notes/go1.16/test/codegen/mathbits.go:133)	SUBQ	$24, SP
	0x0013 00019 (/home/laijh/go/src/source-notes/go1.16/test/codegen/mathbits.go:133)	MOVQ	BP, 16(SP)
	0x0018 00024 (/home/laijh/go/src/source-notes/go1.16/test/codegen/mathbits.go:133)	LEAQ	16(SP), BP
	0x001d 00029 (/home/laijh/go/src/source-notes/go1.16/test/codegen/mathbits.go:133)	FUNCDATA	$0, gclocals·33cdeccccebe80329f1fdbee7f5874cb(SB)
	0x001d 00029 (/home/laijh/go/src/source-notes/go1.16/test/codegen/mathbits.go:133)	FUNCDATA	$1, gclocals·33cdeccccebe80329f1fdbee7f5874cb(SB)
	0x001d 00029 (/home/laijh/go/src/source-notes/go1.16/test/codegen/mathbits.go:133)	MOVBQZX	runtime.x86HasPOPCNT(SB), AX
	0x0025 00037 (/home/laijh/go/src/source-notes/go1.16/test/codegen/mathbits.go:133)	TESTQ	AX, AX
	0x0028 00040 (/home/laijh/go/src/source-notes/go1.16/test/codegen/mathbits.go:140)	JEQ	67
	0x002a 00042 (/home/laijh/go/src/source-notes/go1.16/test/codegen/mathbits.go:140)	MOVQ	"".n+32(SP), AX
	0x002f 00047 (/home/laijh/go/src/source-notes/go1.16/test/codegen/mathbits.go:140)	POPCNTQ	AX, AX
	0x0034 00052 (/home/laijh/go/src/source-notes/go1.16/test/codegen/mathbits.go:140)	MOVQ	AX, "".~r1+40(SP)
	0x0039 00057 (/home/laijh/go/src/source-notes/go1.16/test/codegen/mathbits.go:140)	MOVQ	16(SP), BP
	0x003e 00062 (/home/laijh/go/src/source-notes/go1.16/test/codegen/mathbits.go:140)	ADDQ	$24, SP
	0x0042 00066 (/home/laijh/go/src/source-notes/go1.16/test/codegen/mathbits.go:140)	RET
	0x0043 00067 (/home/laijh/go/src/source-notes/go1.16/test/codegen/mathbits.go:140)	MOVQ	"".n+32(SP), AX
	0x0048 00072 (/home/laijh/go/src/source-notes/go1.16/test/codegen/mathbits.go:140)	MOVQ	AX, (SP)
	0x004c 00076 (/home/laijh/go/src/source-notes/go1.16/test/codegen/mathbits.go:140)	PCDATA	$1, $0
	0x004c 00076 (/home/laijh/go/src/source-notes/go1.16/test/codegen/mathbits.go:140)	CALL	math/bits.OnesCount64(SB)
	0x0051 00081 (/home/laijh/go/src/source-notes/go1.16/test/codegen/mathbits.go:140)	MOVQ	8(SP), AX
	0x0056 00086 (/home/laijh/go/src/source-notes/go1.16/test/codegen/mathbits.go:140)	JMP	52
	0x0058 00088 (/home/laijh/go/src/source-notes/go1.16/test/codegen/mathbits.go:140)	NOP
	0x0058 00088 (/home/laijh/go/src/source-notes/go1.16/test/codegen/mathbits.go:133)	PCDATA	$1, $-1
	0x0058 00088 (/home/laijh/go/src/source-notes/go1.16/test/codegen/mathbits.go:133)	PCDATA	$0, $-2
	0x0058 00088 (/home/laijh/go/src/source-notes/go1.16/test/codegen/mathbits.go:133)	CALL	runtime.morestack_noctxt(SB)
	0x005d 00093 (/home/laijh/go/src/source-notes/go1.16/test/codegen/mathbits.go:133)	PCDATA	$0, $-1
	0x005d 00093 (/home/laijh/go/src/source-notes/go1.16/test/codegen/mathbits.go:133)	JMP	0
	0x0000 64 48 8b 0c 25 00 00 00 00 48 3b 61 10 76 49 48  dH..%....H;a.vIH
	0x0010 83 ec 18 48 89 6c 24 10 48 8d 6c 24 10 48 0f b6  ...H.l$.H.l$.H..
	0x0020 05 00 00 00 00 48 85 c0 74 19 48 8b 44 24 20 f3  .....H..t.H.D$ .
	0x0030 48 0f b8 c0 48 89 44 24 28 48 8b 6c 24 10 48 83  H...H.D$(H.l$.H.
	0x0040 c4 18 c3 48 8b 44 24 20 48 89 04 24 e8 00 00 00  ...H.D$ H..$....
	0x0050 00 48 8b 44 24 08 eb dc e8 00 00 00 00 eb a1     .H.D$..........
	rel 5+4 t=17 TLS+0
	rel 33+4 t=16 runtime.x86HasPOPCNT<0>+0
	rel 77+4 t=8 math/bits.OnesCount64<1>+0
	rel 89+4 t=8 runtime.morestack_noctxt<0>+0
"".OnesCount32<1> STEXT size=91 args=0x10 locals=0x18 funcid=0x0
	0x0000 00000 (/home/laijh/go/src/source-notes/go1.16/test/codegen/mathbits.go:144)	TEXT	"".OnesCount32(SB), ABIInternal, $24-16
	0x0000 00000 (/home/laijh/go/src/source-notes/go1.16/test/codegen/mathbits.go:144)	MOVQ	(TLS), CX
	0x0009 00009 (/home/laijh/go/src/source-notes/go1.16/test/codegen/mathbits.go:144)	CMPQ	SP, 16(CX)
	0x000d 00013 (/home/laijh/go/src/source-notes/go1.16/test/codegen/mathbits.go:144)	PCDATA	$0, $-2
	0x000d 00013 (/home/laijh/go/src/source-notes/go1.16/test/codegen/mathbits.go:144)	JLS	84
	0x000f 00015 (/home/laijh/go/src/source-notes/go1.16/test/codegen/mathbits.go:144)	PCDATA	$0, $-1
	0x000f 00015 (/home/laijh/go/src/source-notes/go1.16/test/codegen/mathbits.go:144)	SUBQ	$24, SP
	0x0013 00019 (/home/laijh/go/src/source-notes/go1.16/test/codegen/mathbits.go:144)	MOVQ	BP, 16(SP)
	0x0018 00024 (/home/laijh/go/src/source-notes/go1.16/test/codegen/mathbits.go:144)	LEAQ	16(SP), BP
	0x001d 00029 (/home/laijh/go/src/source-notes/go1.16/test/codegen/mathbits.go:144)	FUNCDATA	$0, gclocals·33cdeccccebe80329f1fdbee7f5874cb(SB)
	0x001d 00029 (/home/laijh/go/src/source-notes/go1.16/test/codegen/mathbits.go:144)	FUNCDATA	$1, gclocals·33cdeccccebe80329f1fdbee7f5874cb(SB)
	0x001d 00029 (/home/laijh/go/src/source-notes/go1.16/test/codegen/mathbits.go:144)	MOVBQZX	runtime.x86HasPOPCNT(SB), AX
	0x0025 00037 (/home/laijh/go/src/source-notes/go1.16/test/codegen/mathbits.go:144)	TESTQ	AX, AX
	0x0028 00040 (/home/laijh/go/src/source-notes/go1.16/test/codegen/mathbits.go:151)	JEQ	65
	0x002a 00042 (/home/laijh/go/src/source-notes/go1.16/test/codegen/mathbits.go:151)	MOVL	"".n+32(SP), AX
	0x002e 00046 (/home/laijh/go/src/source-notes/go1.16/test/codegen/mathbits.go:151)	POPCNTL	AX, AX
	0x0032 00050 (/home/laijh/go/src/source-notes/go1.16/test/codegen/mathbits.go:151)	MOVQ	AX, "".~r1+40(SP)
	0x0037 00055 (/home/laijh/go/src/source-notes/go1.16/test/codegen/mathbits.go:151)	MOVQ	16(SP), BP
	0x003c 00060 (/home/laijh/go/src/source-notes/go1.16/test/codegen/mathbits.go:151)	ADDQ	$24, SP
	0x0040 00064 (/home/laijh/go/src/source-notes/go1.16/test/codegen/mathbits.go:151)	RET
	0x0041 00065 (/home/laijh/go/src/source-notes/go1.16/test/codegen/mathbits.go:151)	MOVL	"".n+32(SP), AX
	0x0045 00069 (/home/laijh/go/src/source-notes/go1.16/test/codegen/mathbits.go:151)	MOVL	AX, (SP)
	0x0048 00072 (/home/laijh/go/src/source-notes/go1.16/test/codegen/mathbits.go:151)	PCDATA	$1, $0
	0x0048 00072 (/home/laijh/go/src/source-notes/go1.16/test/codegen/mathbits.go:151)	CALL	math/bits.OnesCount32(SB)
	0x004d 00077 (/home/laijh/go/src/source-notes/go1.16/test/codegen/mathbits.go:151)	MOVQ	8(SP), AX
	0x0052 00082 (/home/laijh/go/src/source-notes/go1.16/test/codegen/mathbits.go:151)	JMP	50
	0x0054 00084 (/home/laijh/go/src/source-notes/go1.16/test/codegen/mathbits.go:151)	NOP
	0x0054 00084 (/home/laijh/go/src/source-notes/go1.16/test/codegen/mathbits.go:144)	PCDATA	$1, $-1
	0x0054 00084 (/home/laijh/go/src/source-notes/go1.16/test/codegen/mathbits.go:144)	PCDATA	$0, $-2
	0x0054 00084 (/home/laijh/go/src/source-notes/go1.16/test/codegen/mathbits.go:144)	CALL	runtime.morestack_noctxt(SB)
	0x0059 00089 (/home/laijh/go/src/source-notes/go1.16/test/codegen/mathbits.go:144)	PCDATA	$0, $-1
	0x0059 00089 (/home/laijh/go/src/source-notes/go1.16/test/codegen/mathbits.go:144)	JMP	0
	0x0000 64 48 8b 0c 25 00 00 00 00 48 3b 61 10 76 45 48  dH..%....H;a.vEH
	0x0010 83 ec 18 48 89 6c 24 10 48 8d 6c 24 10 48 0f b6  ...H.l$.H.l$.H..
	0x0020 05 00 00 00 00 48 85 c0 74 17 8b 44 24 20 f3 0f  .....H..t..D$ ..
	0x0030 b8 c0 48 89 44 24 28 48 8b 6c 24 10 48 83 c4 18  ..H.D$(H.l$.H...
	0x0040 c3 8b 44 24 20 89 04 24 e8 00 00 00 00 48 8b 44  ..D$ ..$.....H.D
	0x0050 24 08 eb de e8 00 00 00 00 eb a5                 $..........
	rel 5+4 t=17 TLS+0
	rel 33+4 t=16 runtime.x86HasPOPCNT<0>+0
	rel 73+4 t=8 math/bits.OnesCount32<1>+0
	rel 85+4 t=8 runtime.morestack_noctxt<0>+0
"".OnesCount16<1> STEXT size=94 args=0x10 locals=0x18 funcid=0x0
	0x0000 00000 (/home/laijh/go/src/source-notes/go1.16/test/codegen/mathbits.go:155)	TEXT	"".OnesCount16(SB), ABIInternal, $24-16
	0x0000 00000 (/home/laijh/go/src/source-notes/go1.16/test/codegen/mathbits.go:155)	MOVQ	(TLS), CX
	0x0009 00009 (/home/laijh/go/src/source-notes/go1.16/test/codegen/mathbits.go:155)	CMPQ	SP, 16(CX)
	0x000d 00013 (/home/laijh/go/src/source-notes/go1.16/test/codegen/mathbits.go:155)	PCDATA	$0, $-2
	0x000d 00013 (/home/laijh/go/src/source-notes/go1.16/test/codegen/mathbits.go:155)	JLS	87
	0x000f 00015 (/home/laijh/go/src/source-notes/go1.16/test/codegen/mathbits.go:155)	PCDATA	$0, $-1
	0x000f 00015 (/home/laijh/go/src/source-notes/go1.16/test/codegen/mathbits.go:155)	SUBQ	$24, SP
	0x0013 00019 (/home/laijh/go/src/source-notes/go1.16/test/codegen/mathbits.go:155)	MOVQ	BP, 16(SP)
	0x0018 00024 (/home/laijh/go/src/source-notes/go1.16/test/codegen/mathbits.go:155)	LEAQ	16(SP), BP
	0x001d 00029 (/home/laijh/go/src/source-notes/go1.16/test/codegen/mathbits.go:155)	FUNCDATA	$0, gclocals·33cdeccccebe80329f1fdbee7f5874cb(SB)
	0x001d 00029 (/home/laijh/go/src/source-notes/go1.16/test/codegen/mathbits.go:155)	FUNCDATA	$1, gclocals·33cdeccccebe80329f1fdbee7f5874cb(SB)
	0x001d 00029 (/home/laijh/go/src/source-notes/go1.16/test/codegen/mathbits.go:155)	MOVBQZX	runtime.x86HasPOPCNT(SB), AX
	0x0025 00037 (/home/laijh/go/src/source-notes/go1.16/test/codegen/mathbits.go:155)	TESTQ	AX, AX
	0x0028 00040 (/home/laijh/go/src/source-notes/go1.16/test/codegen/mathbits.go:162)	JEQ	66
	0x002a 00042 (/home/laijh/go/src/source-notes/go1.16/test/codegen/mathbits.go:162)	MOVWLZX	"".n+32(SP), AX
	0x002f 00047 (/home/laijh/go/src/source-notes/go1.16/test/codegen/mathbits.go:162)	POPCNTL	AX, AX
	0x0033 00051 (/home/laijh/go/src/source-notes/go1.16/test/codegen/mathbits.go:162)	MOVQ	AX, "".~r1+40(SP)
	0x0038 00056 (/home/laijh/go/src/source-notes/go1.16/test/codegen/mathbits.go:162)	MOVQ	16(SP), BP
	0x003d 00061 (/home/laijh/go/src/source-notes/go1.16/test/codegen/mathbits.go:162)	ADDQ	$24, SP
	0x0041 00065 (/home/laijh/go/src/source-notes/go1.16/test/codegen/mathbits.go:162)	RET
	0x0042 00066 (/home/laijh/go/src/source-notes/go1.16/test/codegen/mathbits.go:162)	MOVWLZX	"".n+32(SP), AX
	0x0047 00071 (/home/laijh/go/src/source-notes/go1.16/test/codegen/mathbits.go:162)	MOVW	AX, (SP)
	0x004b 00075 (/home/laijh/go/src/source-notes/go1.16/test/codegen/mathbits.go:162)	PCDATA	$1, $0
	0x004b 00075 (/home/laijh/go/src/source-notes/go1.16/test/codegen/mathbits.go:162)	CALL	math/bits.OnesCount16(SB)
	0x0050 00080 (/home/laijh/go/src/source-notes/go1.16/test/codegen/mathbits.go:162)	MOVQ	8(SP), AX
	0x0055 00085 (/home/laijh/go/src/source-notes/go1.16/test/codegen/mathbits.go:162)	JMP	51
	0x0057 00087 (/home/laijh/go/src/source-notes/go1.16/test/codegen/mathbits.go:162)	NOP
	0x0057 00087 (/home/laijh/go/src/source-notes/go1.16/test/codegen/mathbits.go:155)	PCDATA	$1, $-1
	0x0057 00087 (/home/laijh/go/src/source-notes/go1.16/test/codegen/mathbits.go:155)	PCDATA	$0, $-2
	0x0057 00087 (/home/laijh/go/src/source-notes/go1.16/test/codegen/mathbits.go:155)	CALL	runtime.morestack_noctxt(SB)
	0x005c 00092 (/home/laijh/go/src/source-notes/go1.16/test/codegen/mathbits.go:155)	PCDATA	$0, $-1
	0x005c 00092 (/home/laijh/go/src/source-notes/go1.16/test/codegen/mathbits.go:155)	JMP	0
	0x0000 64 48 8b 0c 25 00 00 00 00 48 3b 61 10 76 48 48  dH..%....H;a.vHH
	0x0010 83 ec 18 48 89 6c 24 10 48 8d 6c 24 10 48 0f b6  ...H.l$.H.l$.H..
	0x0020 05 00 00 00 00 48 85 c0 74 18 0f b7 44 24 20 f3  .....H..t...D$ .
	0x0030 0f b8 c0 48 89 44 24 28 48 8b 6c 24 10 48 83 c4  ...H.D$(H.l$.H..
	0x0040 18 c3 0f b7 44 24 20 66 89 04 24 e8 00 00 00 00  ....D$ f..$.....
	0x0050 48 8b 44 24 08 eb dc e8 00 00 00 00 eb a2        H.D$..........
	rel 5+4 t=17 TLS+0
	rel 33+4 t=16 runtime.x86HasPOPCNT<0>+0
	rel 76+4 t=8 math/bits.OnesCount16<1>+0
	rel 88+4 t=8 runtime.morestack_noctxt<0>+0
"".OnesCount8<1> STEXT nosplit size=22 args=0x10 locals=0x0 funcid=0x0
	0x0000 00000 (/home/laijh/go/src/source-notes/go1.16/test/codegen/mathbits.go:165)	TEXT	"".OnesCount8(SB), NOSPLIT|ABIInternal, $0-16
	0x0000 00000 (/home/laijh/go/src/source-notes/go1.16/test/codegen/mathbits.go:165)	FUNCDATA	$0, gclocals·33cdeccccebe80329f1fdbee7f5874cb(SB)
	0x0000 00000 (/home/laijh/go/src/source-notes/go1.16/test/codegen/mathbits.go:165)	FUNCDATA	$1, gclocals·33cdeccccebe80329f1fdbee7f5874cb(SB)
	0x0000 00000 (<unknown line number>)	NOP
	0x0000 00000 (/home/laijh/go/src/source-notes/go1.16/test/codegen/mathbits.go:170)	MOVBLZX	"".n+8(SP), AX
	0x0005 00005 (/home/laijh/go/src/source-notes/go1.16/test/codegen/mathbits.go:170)	LEAQ	math/bits.pop8tab(SB), CX
	0x000c 00012 (/home/laijh/go/src/source-notes/go1.16/test/codegen/mathbits.go:170)	MOVBLZX	(CX)(AX*1), AX
	0x0010 00016 (/home/laijh/go/src/source-notes/go1.16/test/codegen/mathbits.go:170)	MOVQ	AX, "".~r1+16(SP)
	0x0015 00021 (/home/laijh/go/src/source-notes/go1.16/test/codegen/mathbits.go:170)	RET
	0x0000 0f b6 44 24 08 48 8d 0d 00 00 00 00 0f b6 04 01  ..D$.H..........
	0x0010 48 89 44 24 10 c3                                H.D$..
	rel 8+4 t=16 math/bits.pop8tab<0>+0
"".ReverseBytes<1> STEXT nosplit size=14 args=0x10 locals=0x0 funcid=0x0
	0x0000 00000 (/home/laijh/go/src/source-notes/go1.16/test/codegen/mathbits.go:177)	TEXT	"".ReverseBytes(SB), NOSPLIT|ABIInternal, $0-16
	0x0000 00000 (/home/laijh/go/src/source-notes/go1.16/test/codegen/mathbits.go:177)	FUNCDATA	$0, gclocals·33cdeccccebe80329f1fdbee7f5874cb(SB)
	0x0000 00000 (/home/laijh/go/src/source-notes/go1.16/test/codegen/mathbits.go:177)	FUNCDATA	$1, gclocals·33cdeccccebe80329f1fdbee7f5874cb(SB)
	0x0000 00000 (<unknown line number>)	NOP
	0x0000 00000 (/home/laijh/go/src/source-notes/go1.16/test/codegen/mathbits.go:181)	MOVQ	"".n+8(SP), AX
	0x0005 00005 (/home/laijh/go/src/source-notes/go1.16/test/codegen/mathbits.go:181)	BSWAPQ	AX
	0x0008 00008 (/home/laijh/go/src/source-notes/go1.16/test/codegen/mathbits.go:181)	MOVQ	AX, "".~r1+16(SP)
	0x000d 00013 (/home/laijh/go/src/source-notes/go1.16/test/codegen/mathbits.go:181)	RET
	0x0000 48 8b 44 24 08 48 0f c8 48 89 44 24 10 c3        H.D$.H..H.D$..
"".ReverseBytes64<1> STEXT nosplit size=14 args=0x10 locals=0x0 funcid=0x0
	0x0000 00000 (/home/laijh/go/src/source-notes/go1.16/test/codegen/mathbits.go:184)	TEXT	"".ReverseBytes64(SB), NOSPLIT|ABIInternal, $0-16
	0x0000 00000 (/home/laijh/go/src/source-notes/go1.16/test/codegen/mathbits.go:184)	FUNCDATA	$0, gclocals·33cdeccccebe80329f1fdbee7f5874cb(SB)
	0x0000 00000 (/home/laijh/go/src/source-notes/go1.16/test/codegen/mathbits.go:184)	FUNCDATA	$1, gclocals·33cdeccccebe80329f1fdbee7f5874cb(SB)
	0x0000 00000 (/home/laijh/go/src/source-notes/go1.16/test/codegen/mathbits.go:188)	MOVQ	"".n+8(SP), AX
	0x0005 00005 (/home/laijh/go/src/source-notes/go1.16/test/codegen/mathbits.go:188)	BSWAPQ	AX
	0x0008 00008 (/home/laijh/go/src/source-notes/go1.16/test/codegen/mathbits.go:188)	MOVQ	AX, "".~r1+16(SP)
	0x000d 00013 (/home/laijh/go/src/source-notes/go1.16/test/codegen/mathbits.go:188)	RET
	0x0000 48 8b 44 24 08 48 0f c8 48 89 44 24 10 c3        H.D$.H..H.D$..
"".ReverseBytes32<1> STEXT nosplit size=11 args=0x10 locals=0x0 funcid=0x0
	0x0000 00000 (/home/laijh/go/src/source-notes/go1.16/test/codegen/mathbits.go:191)	TEXT	"".ReverseBytes32(SB), NOSPLIT|ABIInternal, $0-16
	0x0000 00000 (/home/laijh/go/src/source-notes/go1.16/test/codegen/mathbits.go:191)	FUNCDATA	$0, gclocals·33cdeccccebe80329f1fdbee7f5874cb(SB)
	0x0000 00000 (/home/laijh/go/src/source-notes/go1.16/test/codegen/mathbits.go:191)	FUNCDATA	$1, gclocals·33cdeccccebe80329f1fdbee7f5874cb(SB)
	0x0000 00000 (/home/laijh/go/src/source-notes/go1.16/test/codegen/mathbits.go:195)	MOVL	"".n+8(SP), AX
	0x0004 00004 (/home/laijh/go/src/source-notes/go1.16/test/codegen/mathbits.go:195)	BSWAPL	AX
	0x0006 00006 (/home/laijh/go/src/source-notes/go1.16/test/codegen/mathbits.go:195)	MOVL	AX, "".~r1+16(SP)
	0x000a 00010 (/home/laijh/go/src/source-notes/go1.16/test/codegen/mathbits.go:195)	RET
	0x0000 8b 44 24 08 0f c8 89 44 24 10 c3                 .D$....D$..
"".ReverseBytes16<1> STEXT nosplit size=15 args=0x10 locals=0x0 funcid=0x0
	0x0000 00000 (/home/laijh/go/src/source-notes/go1.16/test/codegen/mathbits.go:198)	TEXT	"".ReverseBytes16(SB), NOSPLIT|ABIInternal, $0-16
	0x0000 00000 (/home/laijh/go/src/source-notes/go1.16/test/codegen/mathbits.go:198)	FUNCDATA	$0, gclocals·33cdeccccebe80329f1fdbee7f5874cb(SB)
	0x0000 00000 (/home/laijh/go/src/source-notes/go1.16/test/codegen/mathbits.go:198)	FUNCDATA	$1, gclocals·33cdeccccebe80329f1fdbee7f5874cb(SB)
	0x0000 00000 (<unknown line number>)	NOP
	0x0000 00000 (/home/laijh/go/src/source-notes/go1.16/test/codegen/mathbits.go:204)	MOVWLZX	"".n+8(SP), AX
	0x0005 00005 (/home/laijh/go/src/source-notes/go1.16/test/codegen/mathbits.go:204)	ROLW	$8, AX
	0x0009 00009 (/home/laijh/go/src/source-notes/go1.16/test/codegen/mathbits.go:204)	MOVW	AX, "".~r1+16(SP)
	0x000e 00014 (/home/laijh/go/src/source-notes/go1.16/test/codegen/mathbits.go:204)	RET
	0x0000 0f b7 44 24 08 66 c1 c0 08 66 89 44 24 10 c3     ..D$.f...f.D$..
"".RotateLeft64<1> STEXT nosplit size=15 args=0x10 locals=0x0 funcid=0x0
	0x0000 00000 (/home/laijh/go/src/source-notes/go1.16/test/codegen/mathbits.go:211)	TEXT	"".RotateLeft64(SB), NOSPLIT|ABIInternal, $0-16
	0x0000 00000 (/home/laijh/go/src/source-notes/go1.16/test/codegen/mathbits.go:211)	FUNCDATA	$0, gclocals·33cdeccccebe80329f1fdbee7f5874cb(SB)
	0x0000 00000 (/home/laijh/go/src/source-notes/go1.16/test/codegen/mathbits.go:211)	FUNCDATA	$1, gclocals·33cdeccccebe80329f1fdbee7f5874cb(SB)
	0x0000 00000 (/home/laijh/go/src/source-notes/go1.16/test/codegen/mathbits.go:218)	MOVQ	"".n+8(SP), AX
	0x0005 00005 (/home/laijh/go/src/source-notes/go1.16/test/codegen/mathbits.go:218)	ROLQ	$37, AX
	0x0009 00009 (/home/laijh/go/src/source-notes/go1.16/test/codegen/mathbits.go:218)	MOVQ	AX, "".~r1+16(SP)
	0x000e 00014 (/home/laijh/go/src/source-notes/go1.16/test/codegen/mathbits.go:218)	RET
	0x0000 48 8b 44 24 08 48 c1 c0 25 48 89 44 24 10 c3     H.D$.H..%H.D$..
"".RotateLeft32<1> STEXT nosplit size=12 args=0x10 locals=0x0 funcid=0x0
	0x0000 00000 (/home/laijh/go/src/source-notes/go1.16/test/codegen/mathbits.go:221)	TEXT	"".RotateLeft32(SB), NOSPLIT|ABIInternal, $0-16
	0x0000 00000 (/home/laijh/go/src/source-notes/go1.16/test/codegen/mathbits.go:221)	FUNCDATA	$0, gclocals·33cdeccccebe80329f1fdbee7f5874cb(SB)
	0x0000 00000 (/home/laijh/go/src/source-notes/go1.16/test/codegen/mathbits.go:221)	FUNCDATA	$1, gclocals·33cdeccccebe80329f1fdbee7f5874cb(SB)
	0x0000 00000 (/home/laijh/go/src/source-notes/go1.16/test/codegen/mathbits.go:229)	MOVL	"".n+8(SP), AX
	0x0004 00004 (/home/laijh/go/src/source-notes/go1.16/test/codegen/mathbits.go:229)	ROLL	$9, AX
	0x0007 00007 (/home/laijh/go/src/source-notes/go1.16/test/codegen/mathbits.go:229)	MOVL	AX, "".~r1+16(SP)
	0x000b 00011 (/home/laijh/go/src/source-notes/go1.16/test/codegen/mathbits.go:229)	RET
	0x0000 8b 44 24 08 c1 c0 09 89 44 24 10 c3              .D$.....D$..
"".RotateLeft16<1> STEXT nosplit size=15 args=0x10 locals=0x0 funcid=0x0
	0x0000 00000 (/home/laijh/go/src/source-notes/go1.16/test/codegen/mathbits.go:232)	TEXT	"".RotateLeft16(SB), NOSPLIT|ABIInternal, $0-16
	0x0000 00000 (/home/laijh/go/src/source-notes/go1.16/test/codegen/mathbits.go:232)	FUNCDATA	$0, gclocals·33cdeccccebe80329f1fdbee7f5874cb(SB)
	0x0000 00000 (/home/laijh/go/src/source-notes/go1.16/test/codegen/mathbits.go:232)	FUNCDATA	$1, gclocals·33cdeccccebe80329f1fdbee7f5874cb(SB)
	0x0000 00000 (/home/laijh/go/src/source-notes/go1.16/test/codegen/mathbits.go:234)	MOVWLZX	"".n+8(SP), AX
	0x0005 00005 (/home/laijh/go/src/source-notes/go1.16/test/codegen/mathbits.go:234)	ROLW	$5, AX
	0x0009 00009 (/home/laijh/go/src/source-notes/go1.16/test/codegen/mathbits.go:234)	MOVW	AX, "".~r1+16(SP)
	0x000e 00014 (/home/laijh/go/src/source-notes/go1.16/test/codegen/mathbits.go:234)	RET
	0x0000 0f b7 44 24 08 66 c1 c0 05 66 89 44 24 10 c3     ..D$.f...f.D$..
"".RotateLeft8<1> STEXT nosplit size=13 args=0x10 locals=0x0 funcid=0x0
	0x0000 00000 (/home/laijh/go/src/source-notes/go1.16/test/codegen/mathbits.go:237)	TEXT	"".RotateLeft8(SB), NOSPLIT|ABIInternal, $0-16
	0x0000 00000 (/home/laijh/go/src/source-notes/go1.16/test/codegen/mathbits.go:237)	FUNCDATA	$0, gclocals·33cdeccccebe80329f1fdbee7f5874cb(SB)
	0x0000 00000 (/home/laijh/go/src/source-notes/go1.16/test/codegen/mathbits.go:237)	FUNCDATA	$1, gclocals·33cdeccccebe80329f1fdbee7f5874cb(SB)
	0x0000 00000 (/home/laijh/go/src/source-notes/go1.16/test/codegen/mathbits.go:239)	MOVBLZX	"".n+8(SP), AX
	0x0005 00005 (/home/laijh/go/src/source-notes/go1.16/test/codegen/mathbits.go:239)	ROLB	$5, AL
	0x0008 00008 (/home/laijh/go/src/source-notes/go1.16/test/codegen/mathbits.go:239)	MOVB	AL, "".~r1+16(SP)
	0x000c 00012 (/home/laijh/go/src/source-notes/go1.16/test/codegen/mathbits.go:239)	RET
	0x0000 0f b6 44 24 08 c0 c0 05 88 44 24 10 c3           ..D$.....D$..
"".RotateLeftVariable<1> STEXT nosplit size=19 args=0x18 locals=0x0 funcid=0x0
	0x0000 00000 (/home/laijh/go/src/source-notes/go1.16/test/codegen/mathbits.go:242)	TEXT	"".RotateLeftVariable(SB), NOSPLIT|ABIInternal, $0-24
	0x0000 00000 (/home/laijh/go/src/source-notes/go1.16/test/codegen/mathbits.go:242)	FUNCDATA	$0, gclocals·33cdeccccebe80329f1fdbee7f5874cb(SB)
	0x0000 00000 (/home/laijh/go/src/source-notes/go1.16/test/codegen/mathbits.go:242)	FUNCDATA	$1, gclocals·33cdeccccebe80329f1fdbee7f5874cb(SB)
	0x0000 00000 (/home/laijh/go/src/source-notes/go1.16/test/codegen/mathbits.go:249)	MOVQ	"".m+16(SP), CX
	0x0005 00005 (/home/laijh/go/src/source-notes/go1.16/test/codegen/mathbits.go:249)	MOVQ	"".n+8(SP), AX
	0x000a 00010 (/home/laijh/go/src/source-notes/go1.16/test/codegen/mathbits.go:249)	ROLQ	CX, AX
	0x000d 00013 (/home/laijh/go/src/source-notes/go1.16/test/codegen/mathbits.go:249)	MOVQ	AX, "".~r2+24(SP)
	0x0012 00018 (/home/laijh/go/src/source-notes/go1.16/test/codegen/mathbits.go:249)	RET
	0x0000 48 8b 4c 24 10 48 8b 44 24 08 48 d3 c0 48 89 44  H.L$.H.D$.H..H.D
	0x0010 24 18 c3                                         $..
"".RotateLeftVariable64<1> STEXT nosplit size=19 args=0x18 locals=0x0 funcid=0x0
	0x0000 00000 (/home/laijh/go/src/source-notes/go1.16/test/codegen/mathbits.go:252)	TEXT	"".RotateLeftVariable64(SB), NOSPLIT|ABIInternal, $0-24
	0x0000 00000 (/home/laijh/go/src/source-notes/go1.16/test/codegen/mathbits.go:252)	FUNCDATA	$0, gclocals·33cdeccccebe80329f1fdbee7f5874cb(SB)
	0x0000 00000 (/home/laijh/go/src/source-notes/go1.16/test/codegen/mathbits.go:252)	FUNCDATA	$1, gclocals·33cdeccccebe80329f1fdbee7f5874cb(SB)
	0x0000 00000 (/home/laijh/go/src/source-notes/go1.16/test/codegen/mathbits.go:259)	MOVQ	"".m+16(SP), CX
	0x0005 00005 (/home/laijh/go/src/source-notes/go1.16/test/codegen/mathbits.go:259)	MOVQ	"".n+8(SP), AX
	0x000a 00010 (/home/laijh/go/src/source-notes/go1.16/test/codegen/mathbits.go:259)	ROLQ	CX, AX
	0x000d 00013 (/home/laijh/go/src/source-notes/go1.16/test/codegen/mathbits.go:259)	MOVQ	AX, "".~r2+24(SP)
	0x0012 00018 (/home/laijh/go/src/source-notes/go1.16/test/codegen/mathbits.go:259)	RET
	0x0000 48 8b 4c 24 10 48 8b 44 24 08 48 d3 c0 48 89 44  H.L$.H.D$.H..H.D
	0x0010 24 18 c3                                         $..
"".RotateLeftVariable32<1> STEXT nosplit size=16 args=0x18 locals=0x0 funcid=0x0
	0x0000 00000 (/home/laijh/go/src/source-notes/go1.16/test/codegen/mathbits.go:262)	TEXT	"".RotateLeftVariable32(SB), NOSPLIT|ABIInternal, $0-24
	0x0000 00000 (/home/laijh/go/src/source-notes/go1.16/test/codegen/mathbits.go:262)	FUNCDATA	$0, gclocals·33cdeccccebe80329f1fdbee7f5874cb(SB)
	0x0000 00000 (/home/laijh/go/src/source-notes/go1.16/test/codegen/mathbits.go:262)	FUNCDATA	$1, gclocals·33cdeccccebe80329f1fdbee7f5874cb(SB)
	0x0000 00000 (/home/laijh/go/src/source-notes/go1.16/test/codegen/mathbits.go:270)	MOVQ	"".m+16(SP), CX
	0x0005 00005 (/home/laijh/go/src/source-notes/go1.16/test/codegen/mathbits.go:270)	MOVL	"".n+8(SP), AX
	0x0009 00009 (/home/laijh/go/src/source-notes/go1.16/test/codegen/mathbits.go:270)	ROLL	CX, AX
	0x000b 00011 (/home/laijh/go/src/source-notes/go1.16/test/codegen/mathbits.go:270)	MOVL	AX, "".~r2+24(SP)
	0x000f 00015 (/home/laijh/go/src/source-notes/go1.16/test/codegen/mathbits.go:270)	RET
	0x0000 48 8b 4c 24 10 8b 44 24 08 d3 c0 89 44 24 18 c3  H.L$..D$....D$..
"".TrailingZeros<1> STEXT nosplit size=24 args=0x10 locals=0x0 funcid=0x0
	0x0000 00000 (/home/laijh/go/src/source-notes/go1.16/test/codegen/mathbits.go:277)	TEXT	"".TrailingZeros(SB), NOSPLIT|ABIInternal, $0-16
	0x0000 00000 (/home/laijh/go/src/source-notes/go1.16/test/codegen/mathbits.go:277)	FUNCDATA	$0, gclocals·33cdeccccebe80329f1fdbee7f5874cb(SB)
	0x0000 00000 (/home/laijh/go/src/source-notes/go1.16/test/codegen/mathbits.go:277)	FUNCDATA	$1, gclocals·33cdeccccebe80329f1fdbee7f5874cb(SB)
	0x0000 00000 (/home/laijh/go/src/source-notes/go1.16/test/codegen/mathbits.go:287)	MOVQ	"".n+8(SP), AX
	0x0005 00005 (/home/laijh/go/src/source-notes/go1.16/test/codegen/mathbits.go:287)	BSFQ	AX, AX
	0x0009 00009 (<unknown line number>)	NOP
	0x0009 00009 (/home/laijh/go/src/source-notes/go1.16/test/codegen/mathbits.go:287)	MOVL	$64, CX
	0x000e 00014 (/home/laijh/go/src/source-notes/go1.16/test/codegen/mathbits.go:287)	CMOVQEQ	CX, AX
	0x0012 00018 (/home/laijh/go/src/source-notes/go1.16/test/codegen/mathbits.go:287)	MOVQ	AX, "".~r1+16(SP)
	0x0017 00023 (/home/laijh/go/src/source-notes/go1.16/test/codegen/mathbits.go:287)	RET
	0x0000 48 8b 44 24 08 48 0f bc c0 b9 40 00 00 00 48 0f  H.D$.H....@...H.
	0x0010 44 c1 48 89 44 24 10 c3                          D.H.D$..
"".TrailingZeros64<1> STEXT nosplit size=24 args=0x10 locals=0x0 funcid=0x0
	0x0000 00000 (/home/laijh/go/src/source-notes/go1.16/test/codegen/mathbits.go:290)	TEXT	"".TrailingZeros64(SB), NOSPLIT|ABIInternal, $0-16
	0x0000 00000 (/home/laijh/go/src/source-notes/go1.16/test/codegen/mathbits.go:290)	FUNCDATA	$0, gclocals·33cdeccccebe80329f1fdbee7f5874cb(SB)
	0x0000 00000 (/home/laijh/go/src/source-notes/go1.16/test/codegen/mathbits.go:290)	FUNCDATA	$1, gclocals·33cdeccccebe80329f1fdbee7f5874cb(SB)
	0x0000 00000 (/home/laijh/go/src/source-notes/go1.16/test/codegen/mathbits.go:299)	MOVQ	"".n+8(SP), AX
	0x0005 00005 (/home/laijh/go/src/source-notes/go1.16/test/codegen/mathbits.go:299)	BSFQ	AX, AX
	0x0009 00009 (/home/laijh/go/src/source-notes/go1.16/test/codegen/mathbits.go:299)	MOVL	$64, CX
	0x000e 00014 (/home/laijh/go/src/source-notes/go1.16/test/codegen/mathbits.go:299)	CMOVQEQ	CX, AX
	0x0012 00018 (/home/laijh/go/src/source-notes/go1.16/test/codegen/mathbits.go:299)	MOVQ	AX, "".~r1+16(SP)
	0x0017 00023 (/home/laijh/go/src/source-notes/go1.16/test/codegen/mathbits.go:299)	RET
	0x0000 48 8b 44 24 08 48 0f bc c0 b9 40 00 00 00 48 0f  H.D$.H....@...H.
	0x0010 44 c1 48 89 44 24 10 c3                          D.H.D$..
"".TrailingZeros64Subtract<1> STEXT nosplit size=30 args=0x10 locals=0x0 funcid=0x0
	0x0000 00000 (/home/laijh/go/src/source-notes/go1.16/test/codegen/mathbits.go:302)	TEXT	"".TrailingZeros64Subtract(SB), NOSPLIT|ABIInternal, $0-16
	0x0000 00000 (/home/laijh/go/src/source-notes/go1.16/test/codegen/mathbits.go:302)	FUNCDATA	$0, gclocals·33cdeccccebe80329f1fdbee7f5874cb(SB)
	0x0000 00000 (/home/laijh/go/src/source-notes/go1.16/test/codegen/mathbits.go:302)	FUNCDATA	$1, gclocals·33cdeccccebe80329f1fdbee7f5874cb(SB)
	0x0000 00000 (/home/laijh/go/src/source-notes/go1.16/test/codegen/mathbits.go:305)	MOVQ	"".n+8(SP), AX
	0x0005 00005 (/home/laijh/go/src/source-notes/go1.16/test/codegen/mathbits.go:305)	DECQ	AX
	0x0008 00008 (/home/laijh/go/src/source-notes/go1.16/test/codegen/mathbits.go:305)	NEGQ	AX
	0x000b 00011 (/home/laijh/go/src/source-notes/go1.16/test/codegen/mathbits.go:305)	BSFQ	AX, AX
	0x000f 00015 (/home/laijh/go/src/source-notes/go1.16/test/codegen/mathbits.go:305)	MOVL	$64, CX
	0x0014 00020 (/home/laijh/go/src/source-notes/go1.16/test/codegen/mathbits.go:305)	CMOVQEQ	CX, AX
	0x0018 00024 (/home/laijh/go/src/source-notes/go1.16/test/codegen/mathbits.go:305)	MOVQ	AX, "".~r1+16(SP)
	0x001d 00029 (/home/laijh/go/src/source-notes/go1.16/test/codegen/mathbits.go:305)	RET
	0x0000 48 8b 44 24 08 48 ff c8 48 f7 d8 48 0f bc c0 b9  H.D$.H..H..H....
	0x0010 40 00 00 00 48 0f 44 c1 48 89 44 24 10 c3        @...H.D.H.D$..
"".TrailingZeros32<1> STEXT nosplit size=19 args=0x10 locals=0x0 funcid=0x0
	0x0000 00000 (/home/laijh/go/src/source-notes/go1.16/test/codegen/mathbits.go:308)	TEXT	"".TrailingZeros32(SB), NOSPLIT|ABIInternal, $0-16
	0x0000 00000 (/home/laijh/go/src/source-notes/go1.16/test/codegen/mathbits.go:308)	FUNCDATA	$0, gclocals·33cdeccccebe80329f1fdbee7f5874cb(SB)
	0x0000 00000 (/home/laijh/go/src/source-notes/go1.16/test/codegen/mathbits.go:308)	FUNCDATA	$1, gclocals·33cdeccccebe80329f1fdbee7f5874cb(SB)
	0x0000 00000 (/home/laijh/go/src/source-notes/go1.16/test/codegen/mathbits.go:318)	MOVL	"".n+8(SP), AX
	0x0004 00004 (/home/laijh/go/src/source-notes/go1.16/test/codegen/mathbits.go:318)	BTSQ	$32, AX
	0x0009 00009 (/home/laijh/go/src/source-notes/go1.16/test/codegen/mathbits.go:318)	BSFQ	AX, AX
	0x000d 00013 (/home/laijh/go/src/source-notes/go1.16/test/codegen/mathbits.go:318)	MOVQ	AX, "".~r1+16(SP)
	0x0012 00018 (/home/laijh/go/src/source-notes/go1.16/test/codegen/mathbits.go:318)	RET
	0x0000 8b 44 24 08 48 0f ba e8 20 48 0f bc c0 48 89 44  .D$.H... H...H.D
	0x0010 24 10 c3                                         $..
"".TrailingZeros16<1> STEXT nosplit size=18 args=0x10 locals=0x0 funcid=0x0
	0x0000 00000 (/home/laijh/go/src/source-notes/go1.16/test/codegen/mathbits.go:321)	TEXT	"".TrailingZeros16(SB), NOSPLIT|ABIInternal, $0-16
	0x0000 00000 (/home/laijh/go/src/source-notes/go1.16/test/codegen/mathbits.go:321)	FUNCDATA	$0, gclocals·33cdeccccebe80329f1fdbee7f5874cb(SB)
	0x0000 00000 (/home/laijh/go/src/source-notes/go1.16/test/codegen/mathbits.go:321)	FUNCDATA	$1, gclocals·33cdeccccebe80329f1fdbee7f5874cb(SB)
	0x0000 00000 (/home/laijh/go/src/source-notes/go1.16/test/codegen/mathbits.go:332)	MOVWLZX	"".n+8(SP), AX
	0x0005 00005 (/home/laijh/go/src/source-notes/go1.16/test/codegen/mathbits.go:332)	BTSL	$16, AX
	0x0009 00009 (/home/laijh/go/src/source-notes/go1.16/test/codegen/mathbits.go:332)	BSFL	AX, AX
	0x000c 00012 (/home/laijh/go/src/source-notes/go1.16/test/codegen/mathbits.go:332)	MOVQ	AX, "".~r1+16(SP)
	0x0011 00017 (/home/laijh/go/src/source-notes/go1.16/test/codegen/mathbits.go:332)	RET
	0x0000 0f b7 44 24 08 0f ba e8 10 0f bc c0 48 89 44 24  ..D$........H.D$
	0x0010 10 c3                                            ..
"".TrailingZeros8<1> STEXT nosplit size=18 args=0x10 locals=0x0 funcid=0x0
	0x0000 00000 (/home/laijh/go/src/source-notes/go1.16/test/codegen/mathbits.go:335)	TEXT	"".TrailingZeros8(SB), NOSPLIT|ABIInternal, $0-16
	0x0000 00000 (/home/laijh/go/src/source-notes/go1.16/test/codegen/mathbits.go:335)	FUNCDATA	$0, gclocals·33cdeccccebe80329f1fdbee7f5874cb(SB)
	0x0000 00000 (/home/laijh/go/src/source-notes/go1.16/test/codegen/mathbits.go:335)	FUNCDATA	$1, gclocals·33cdeccccebe80329f1fdbee7f5874cb(SB)
	0x0000 00000 (/home/laijh/go/src/source-notes/go1.16/test/codegen/mathbits.go:341)	MOVBLZX	"".n+8(SP), AX
	0x0005 00005 (/home/laijh/go/src/source-notes/go1.16/test/codegen/mathbits.go:341)	BTSL	$8, AX
	0x0009 00009 (/home/laijh/go/src/source-notes/go1.16/test/codegen/mathbits.go:341)	BSFL	AX, AX
	0x000c 00012 (/home/laijh/go/src/source-notes/go1.16/test/codegen/mathbits.go:341)	MOVQ	AX, "".~r1+16(SP)
	0x0011 00017 (/home/laijh/go/src/source-notes/go1.16/test/codegen/mathbits.go:341)	RET
	0x0000 0f b6 44 24 08 0f ba e8 08 0f bc c0 48 89 44 24  ..D$........H.D$
	0x0010 10 c3                                            ..
"".IterateBits<1> STEXT nosplit size=34 args=0x10 locals=0x0 funcid=0x0
	0x0000 00000 (/home/laijh/go/src/source-notes/go1.16/test/codegen/mathbits.go:346)	TEXT	"".IterateBits(SB), NOSPLIT|ABIInternal, $0-16
	0x0000 00000 (/home/laijh/go/src/source-notes/go1.16/test/codegen/mathbits.go:346)	FUNCDATA	$0, gclocals·33cdeccccebe80329f1fdbee7f5874cb(SB)
	0x0000 00000 (/home/laijh/go/src/source-notes/go1.16/test/codegen/mathbits.go:346)	FUNCDATA	$1, gclocals·33cdeccccebe80329f1fdbee7f5874cb(SB)
	0x0000 00000 (/home/laijh/go/src/source-notes/go1.16/test/codegen/mathbits.go:348)	MOVQ	"".n+8(SP), AX
	0x0005 00005 (/home/laijh/go/src/source-notes/go1.16/test/codegen/mathbits.go:348)	XORL	CX, CX
	0x0007 00007 (/home/laijh/go/src/source-notes/go1.16/test/codegen/mathbits.go:348)	JMP	23
	0x0009 00009 (/home/laijh/go/src/source-notes/go1.16/test/codegen/mathbits.go:350)	BSFQ	AX, DX
	0x000d 00013 (/home/laijh/go/src/source-notes/go1.16/test/codegen/mathbits.go:350)	ADDQ	DX, CX
	0x0010 00016 (<unknown line number>)	NOP
	0x0010 00016 (/home/laijh/go/src/source-notes/go1.16/test/codegen/mathbits.go:351)	LEAQ	-1(AX), DX
	0x0014 00020 (/home/laijh/go/src/source-notes/go1.16/test/codegen/mathbits.go:351)	ANDQ	DX, AX
	0x0017 00023 (/home/laijh/go/src/source-notes/go1.16/test/codegen/mathbits.go:348)	TESTQ	AX, AX
	0x001a 00026 (/home/laijh/go/src/source-notes/go1.16/test/codegen/mathbits.go:348)	JNE	9
	0x001c 00028 (/home/laijh/go/src/source-notes/go1.16/test/codegen/mathbits.go:353)	MOVQ	CX, "".~r1+16(SP)
	0x0021 00033 (/home/laijh/go/src/source-notes/go1.16/test/codegen/mathbits.go:353)	RET
	0x0000 48 8b 44 24 08 31 c9 eb 0e 48 0f bc d0 48 01 d1  H.D$.1...H...H..
	0x0010 48 8d 50 ff 48 21 d0 48 85 c0 75 ed 48 89 4c 24  H.P.H!.H..u.H.L$
	0x0020 10 c3                                            ..
"".IterateBits64<1> STEXT nosplit size=34 args=0x10 locals=0x0 funcid=0x0
	0x0000 00000 (/home/laijh/go/src/source-notes/go1.16/test/codegen/mathbits.go:356)	TEXT	"".IterateBits64(SB), NOSPLIT|ABIInternal, $0-16
	0x0000 00000 (/home/laijh/go/src/source-notes/go1.16/test/codegen/mathbits.go:356)	FUNCDATA	$0, gclocals·33cdeccccebe80329f1fdbee7f5874cb(SB)
	0x0000 00000 (/home/laijh/go/src/source-notes/go1.16/test/codegen/mathbits.go:356)	FUNCDATA	$1, gclocals·33cdeccccebe80329f1fdbee7f5874cb(SB)
	0x0000 00000 (/home/laijh/go/src/source-notes/go1.16/test/codegen/mathbits.go:358)	MOVQ	"".n+8(SP), AX
	0x0005 00005 (/home/laijh/go/src/source-notes/go1.16/test/codegen/mathbits.go:358)	XORL	CX, CX
	0x0007 00007 (/home/laijh/go/src/source-notes/go1.16/test/codegen/mathbits.go:358)	JMP	23
	0x0009 00009 (/home/laijh/go/src/source-notes/go1.16/test/codegen/mathbits.go:360)	BSFQ	AX, DX
	0x000d 00013 (/home/laijh/go/src/source-notes/go1.16/test/codegen/mathbits.go:360)	ADDQ	DX, CX
	0x0010 00016 (/home/laijh/go/src/source-notes/go1.16/test/codegen/mathbits.go:361)	LEAQ	-1(AX), DX
	0x0014 00020 (/home/laijh/go/src/source-notes/go1.16/test/codegen/mathbits.go:361)	ANDQ	DX, AX
	0x0017 00023 (/home/laijh/go/src/source-notes/go1.16/test/codegen/mathbits.go:358)	TESTQ	AX, AX
	0x001a 00026 (/home/laijh/go/src/source-notes/go1.16/test/codegen/mathbits.go:358)	JNE	9
	0x001c 00028 (/home/laijh/go/src/source-notes/go1.16/test/codegen/mathbits.go:363)	MOVQ	CX, "".~r1+16(SP)
	0x0021 00033 (/home/laijh/go/src/source-notes/go1.16/test/codegen/mathbits.go:363)	RET
	0x0000 48 8b 44 24 08 31 c9 eb 0e 48 0f bc d0 48 01 d1  H.D$.1...H...H..
	0x0010 48 8d 50 ff 48 21 d0 48 85 c0 75 ed 48 89 4c 24  H.P.H!.H..u.H.L$
	0x0020 10 c3                                            ..
"".IterateBits32<1> STEXT nosplit size=29 args=0x10 locals=0x0 funcid=0x0
	0x0000 00000 (/home/laijh/go/src/source-notes/go1.16/test/codegen/mathbits.go:366)	TEXT	"".IterateBits32(SB), NOSPLIT|ABIInternal, $0-16
	0x0000 00000 (/home/laijh/go/src/source-notes/go1.16/test/codegen/mathbits.go:366)	FUNCDATA	$0, gclocals·33cdeccccebe80329f1fdbee7f5874cb(SB)
	0x0000 00000 (/home/laijh/go/src/source-notes/go1.16/test/codegen/mathbits.go:366)	FUNCDATA	$1, gclocals·33cdeccccebe80329f1fdbee7f5874cb(SB)
	0x0000 00000 (/home/laijh/go/src/source-notes/go1.16/test/codegen/mathbits.go:368)	MOVL	"".n+8(SP), AX
	0x0004 00004 (/home/laijh/go/src/source-notes/go1.16/test/codegen/mathbits.go:368)	XORL	CX, CX
	0x0006 00006 (/home/laijh/go/src/source-notes/go1.16/test/codegen/mathbits.go:368)	JMP	19
	0x0008 00008 (/home/laijh/go/src/source-notes/go1.16/test/codegen/mathbits.go:370)	BSFL	AX, DX
	0x000b 00011 (/home/laijh/go/src/source-notes/go1.16/test/codegen/mathbits.go:370)	ADDQ	DX, CX
	0x000e 00014 (/home/laijh/go/src/source-notes/go1.16/test/codegen/mathbits.go:371)	LEAL	-1(AX), DX
	0x0011 00017 (/home/laijh/go/src/source-notes/go1.16/test/codegen/mathbits.go:371)	ANDL	DX, AX
	0x0013 00019 (/home/laijh/go/src/source-notes/go1.16/test/codegen/mathbits.go:368)	TESTL	AX, AX
	0x0015 00021 (/home/laijh/go/src/source-notes/go1.16/test/codegen/mathbits.go:368)	JNE	8
	0x0017 00023 (/home/laijh/go/src/source-notes/go1.16/test/codegen/mathbits.go:373)	MOVQ	CX, "".~r1+16(SP)
	0x001c 00028 (/home/laijh/go/src/source-notes/go1.16/test/codegen/mathbits.go:373)	RET
	0x0000 8b 44 24 08 31 c9 eb 0b 0f bc d0 48 01 d1 8d 50  .D$.1......H...P
	0x0010 ff 21 d0 85 c0 75 f1 48 89 4c 24 10 c3           .!...u.H.L$..
"".IterateBits16<1> STEXT nosplit size=31 args=0x10 locals=0x0 funcid=0x0
	0x0000 00000 (/home/laijh/go/src/source-notes/go1.16/test/codegen/mathbits.go:376)	TEXT	"".IterateBits16(SB), NOSPLIT|ABIInternal, $0-16
	0x0000 00000 (/home/laijh/go/src/source-notes/go1.16/test/codegen/mathbits.go:376)	FUNCDATA	$0, gclocals·33cdeccccebe80329f1fdbee7f5874cb(SB)
	0x0000 00000 (/home/laijh/go/src/source-notes/go1.16/test/codegen/mathbits.go:376)	FUNCDATA	$1, gclocals·33cdeccccebe80329f1fdbee7f5874cb(SB)
	0x0000 00000 (/home/laijh/go/src/source-notes/go1.16/test/codegen/mathbits.go:378)	MOVWLZX	"".n+8(SP), AX
	0x0005 00005 (/home/laijh/go/src/source-notes/go1.16/test/codegen/mathbits.go:378)	XORL	CX, CX
	0x0007 00007 (/home/laijh/go/src/source-notes/go1.16/test/codegen/mathbits.go:378)	JMP	20
	0x0009 00009 (/home/laijh/go/src/source-notes/go1.16/test/codegen/mathbits.go:381)	BSFL	AX, DX
	0x000c 00012 (/home/laijh/go/src/source-notes/go1.16/test/codegen/mathbits.go:381)	ADDQ	DX, CX
	0x000f 00015 (/home/laijh/go/src/source-notes/go1.16/test/codegen/mathbits.go:382)	LEAL	-1(AX), DX
	0x0012 00018 (/home/laijh/go/src/source-notes/go1.16/test/codegen/mathbits.go:382)	ANDL	DX, AX
	0x0014 00020 (/home/laijh/go/src/source-notes/go1.16/test/codegen/mathbits.go:378)	TESTW	AX, AX
	0x0017 00023 (/home/laijh/go/src/source-notes/go1.16/test/codegen/mathbits.go:378)	JNE	9
	0x0019 00025 (/home/laijh/go/src/source-notes/go1.16/test/codegen/mathbits.go:384)	MOVQ	CX, "".~r1+16(SP)
	0x001e 00030 (/home/laijh/go/src/source-notes/go1.16/test/codegen/mathbits.go:384)	RET
	0x0000 0f b7 44 24 08 31 c9 eb 0b 0f bc d0 48 01 d1 8d  ..D$.1......H...
	0x0010 50 ff 21 d0 66 85 c0 75 f0 48 89 4c 24 10 c3     P.!.f..u.H.L$..
"".IterateBits8<1> STEXT nosplit size=30 args=0x10 locals=0x0 funcid=0x0
	0x0000 00000 (/home/laijh/go/src/source-notes/go1.16/test/codegen/mathbits.go:387)	TEXT	"".IterateBits8(SB), NOSPLIT|ABIInternal, $0-16
	0x0000 00000 (/home/laijh/go/src/source-notes/go1.16/test/codegen/mathbits.go:387)	FUNCDATA	$0, gclocals·33cdeccccebe80329f1fdbee7f5874cb(SB)
	0x0000 00000 (/home/laijh/go/src/source-notes/go1.16/test/codegen/mathbits.go:387)	FUNCDATA	$1, gclocals·33cdeccccebe80329f1fdbee7f5874cb(SB)
	0x0000 00000 (/home/laijh/go/src/source-notes/go1.16/test/codegen/mathbits.go:389)	MOVBLZX	"".n+8(SP), AX
	0x0005 00005 (/home/laijh/go/src/source-notes/go1.16/test/codegen/mathbits.go:389)	XORL	CX, CX
	0x0007 00007 (/home/laijh/go/src/source-notes/go1.16/test/codegen/mathbits.go:389)	JMP	20
	0x0009 00009 (/home/laijh/go/src/source-notes/go1.16/test/codegen/mathbits.go:392)	BSFL	AX, DX
	0x000c 00012 (/home/laijh/go/src/source-notes/go1.16/test/codegen/mathbits.go:392)	ADDQ	DX, CX
	0x000f 00015 (/home/laijh/go/src/source-notes/go1.16/test/codegen/mathbits.go:393)	LEAL	-1(AX), DX
	0x0012 00018 (/home/laijh/go/src/source-notes/go1.16/test/codegen/mathbits.go:393)	ANDL	DX, AX
	0x0014 00020 (/home/laijh/go/src/source-notes/go1.16/test/codegen/mathbits.go:389)	TESTB	AL, AL
	0x0016 00022 (/home/laijh/go/src/source-notes/go1.16/test/codegen/mathbits.go:389)	JNE	9
	0x0018 00024 (/home/laijh/go/src/source-notes/go1.16/test/codegen/mathbits.go:395)	MOVQ	CX, "".~r1+16(SP)
	0x001d 00029 (/home/laijh/go/src/source-notes/go1.16/test/codegen/mathbits.go:395)	RET
	0x0000 0f b6 44 24 08 31 c9 eb 0b 0f bc d0 48 01 d1 8d  ..D$.1......H...
	0x0010 50 ff 21 d0 84 c0 75 f1 48 89 4c 24 10 c3        P.!...u.H.L$..
"".Add<1> STEXT nosplit size=37 args=0x28 locals=0x0 funcid=0x0
	0x0000 00000 (/home/laijh/go/src/source-notes/go1.16/test/codegen/mathbits.go:402)	TEXT	"".Add(SB), NOSPLIT|ABIInternal, $0-40
	0x0000 00000 (/home/laijh/go/src/source-notes/go1.16/test/codegen/mathbits.go:402)	FUNCDATA	$0, gclocals·33cdeccccebe80329f1fdbee7f5874cb(SB)
	0x0000 00000 (/home/laijh/go/src/source-notes/go1.16/test/codegen/mathbits.go:402)	FUNCDATA	$1, gclocals·33cdeccccebe80329f1fdbee7f5874cb(SB)
	0x0000 00000 (/home/laijh/go/src/source-notes/go1.16/test/codegen/mathbits.go:406)	MOVQ	"".ci+24(SP), AX
	0x0005 00005 (/home/laijh/go/src/source-notes/go1.16/test/codegen/mathbits.go:406)	NEGL	AX
	0x0007 00007 (/home/laijh/go/src/source-notes/go1.16/test/codegen/mathbits.go:406)	MOVQ	"".y+16(SP), AX
	0x000c 00012 (/home/laijh/go/src/source-notes/go1.16/test/codegen/mathbits.go:406)	MOVQ	"".x+8(SP), CX
	0x0011 00017 (/home/laijh/go/src/source-notes/go1.16/test/codegen/mathbits.go:406)	ADCQ	CX, AX
	0x0014 00020 (/home/laijh/go/src/source-notes/go1.16/test/codegen/mathbits.go:406)	MOVQ	AX, "".r+32(SP)
	0x0019 00025 (/home/laijh/go/src/source-notes/go1.16/test/codegen/mathbits.go:406)	SBBQ	AX, AX
	0x001c 00028 (/home/laijh/go/src/source-notes/go1.16/test/codegen/mathbits.go:406)	NEGQ	AX
	0x001f 00031 (/home/laijh/go/src/source-notes/go1.16/test/codegen/mathbits.go:406)	MOVQ	AX, "".co+40(SP)
	0x0024 00036 (/home/laijh/go/src/source-notes/go1.16/test/codegen/mathbits.go:406)	RET
	0x0000 48 8b 44 24 18 f7 d8 48 8b 44 24 10 48 8b 4c 24  H.D$...H.D$.H.L$
	0x0010 08 48 11 c8 48 89 44 24 20 48 19 c0 48 f7 d8 48  .H..H.D$ H..H..H
	0x0020 89 44 24 28 c3                                   .D$(.
"".AddC<1> STEXT nosplit size=33 args=0x20 locals=0x0 funcid=0x0
	0x0000 00000 (/home/laijh/go/src/source-notes/go1.16/test/codegen/mathbits.go:409)	TEXT	"".AddC(SB), NOSPLIT|ABIInternal, $0-32
	0x0000 00000 (/home/laijh/go/src/source-notes/go1.16/test/codegen/mathbits.go:409)	FUNCDATA	$0, gclocals·33cdeccccebe80329f1fdbee7f5874cb(SB)
	0x0000 00000 (/home/laijh/go/src/source-notes/go1.16/test/codegen/mathbits.go:409)	FUNCDATA	$1, gclocals·33cdeccccebe80329f1fdbee7f5874cb(SB)
	0x0000 00000 (/home/laijh/go/src/source-notes/go1.16/test/codegen/mathbits.go:413)	MOVQ	"".ci+16(SP), AX
	0x0005 00005 (/home/laijh/go/src/source-notes/go1.16/test/codegen/mathbits.go:413)	NEGL	AX
	0x0007 00007 (/home/laijh/go/src/source-notes/go1.16/test/codegen/mathbits.go:413)	MOVQ	"".x+8(SP), AX
	0x000c 00012 (/home/laijh/go/src/source-notes/go1.16/test/codegen/mathbits.go:413)	ADCQ	$7, AX
	0x0010 00016 (/home/laijh/go/src/source-notes/go1.16/test/codegen/mathbits.go:413)	MOVQ	AX, "".r+24(SP)
	0x0015 00021 (/home/laijh/go/src/source-notes/go1.16/test/codegen/mathbits.go:413)	SBBQ	AX, AX
	0x0018 00024 (/home/laijh/go/src/source-notes/go1.16/test/codegen/mathbits.go:413)	NEGQ	AX
	0x001b 00027 (/home/laijh/go/src/source-notes/go1.16/test/codegen/mathbits.go:413)	MOVQ	AX, "".co+32(SP)
	0x0020 00032 (/home/laijh/go/src/source-notes/go1.16/test/codegen/mathbits.go:413)	RET
	0x0000 48 8b 44 24 10 f7 d8 48 8b 44 24 08 48 83 d0 07  H.D$...H.D$.H...
	0x0010 48 89 44 24 18 48 19 c0 48 f7 d8 48 89 44 24 20  H.D$.H..H..H.D$ 
	0x0020 c3                                               .
"".AddZ<1> STEXT nosplit size=30 args=0x20 locals=0x0 funcid=0x0
	0x0000 00000 (/home/laijh/go/src/source-notes/go1.16/test/codegen/mathbits.go:416)	TEXT	"".AddZ(SB), NOSPLIT|ABIInternal, $0-32
	0x0000 00000 (/home/laijh/go/src/source-notes/go1.16/test/codegen/mathbits.go:416)	FUNCDATA	$0, gclocals·33cdeccccebe80329f1fdbee7f5874cb(SB)
	0x0000 00000 (/home/laijh/go/src/source-notes/go1.16/test/codegen/mathbits.go:416)	FUNCDATA	$1, gclocals·33cdeccccebe80329f1fdbee7f5874cb(SB)
	0x0000 00000 (/home/laijh/go/src/source-notes/go1.16/test/codegen/mathbits.go:420)	MOVQ	"".y+16(SP), AX
	0x0005 00005 (/home/laijh/go/src/source-notes/go1.16/test/codegen/mathbits.go:420)	MOVQ	"".x+8(SP), CX
	0x000a 00010 (/home/laijh/go/src/source-notes/go1.16/test/codegen/mathbits.go:420)	ADDQ	CX, AX
	0x000d 00013 (/home/laijh/go/src/source-notes/go1.16/test/codegen/mathbits.go:420)	MOVQ	AX, "".r+24(SP)
	0x0012 00018 (/home/laijh/go/src/source-notes/go1.16/test/codegen/mathbits.go:420)	SBBQ	AX, AX
	0x0015 00021 (/home/laijh/go/src/source-notes/go1.16/test/codegen/mathbits.go:420)	NEGQ	AX
	0x0018 00024 (/home/laijh/go/src/source-notes/go1.16/test/codegen/mathbits.go:420)	MOVQ	AX, "".co+32(SP)
	0x001d 00029 (/home/laijh/go/src/source-notes/go1.16/test/codegen/mathbits.go:420)	RET
	0x0000 48 8b 44 24 10 48 8b 4c 24 08 48 01 c8 48 89 44  H.D$.H.L$.H..H.D
	0x0010 24 18 48 19 c0 48 f7 d8 48 89 44 24 20 c3        $.H..H..H.D$ .
"".AddR<1> STEXT nosplit size=26 args=0x20 locals=0x0 funcid=0x0
	0x0000 00000 (/home/laijh/go/src/source-notes/go1.16/test/codegen/mathbits.go:423)	TEXT	"".AddR(SB), NOSPLIT|ABIInternal, $0-32
	0x0000 00000 (/home/laijh/go/src/source-notes/go1.16/test/codegen/mathbits.go:423)	FUNCDATA	$0, gclocals·33cdeccccebe80329f1fdbee7f5874cb(SB)
	0x0000 00000 (/home/laijh/go/src/source-notes/go1.16/test/codegen/mathbits.go:423)	FUNCDATA	$1, gclocals·33cdeccccebe80329f1fdbee7f5874cb(SB)
	0x0000 00000 (/home/laijh/go/src/source-notes/go1.16/test/codegen/mathbits.go:427)	MOVQ	"".ci+24(SP), AX
	0x0005 00005 (/home/laijh/go/src/source-notes/go1.16/test/codegen/mathbits.go:427)	NEGL	AX
	0x0007 00007 (/home/laijh/go/src/source-notes/go1.16/test/codegen/mathbits.go:427)	MOVQ	"".x+8(SP), AX
	0x000c 00012 (/home/laijh/go/src/source-notes/go1.16/test/codegen/mathbits.go:427)	MOVQ	"".y+16(SP), CX
	0x0011 00017 (/home/laijh/go/src/source-notes/go1.16/test/codegen/mathbits.go:427)	ADCQ	CX, AX
	0x0014 00020 (/home/laijh/go/src/source-notes/go1.16/test/codegen/mathbits.go:428)	MOVQ	AX, "".~r3+32(SP)
	0x0019 00025 (/home/laijh/go/src/source-notes/go1.16/test/codegen/mathbits.go:428)	RET
	0x0000 48 8b 44 24 18 f7 d8 48 8b 44 24 08 48 8b 4c 24  H.D$...H.D$.H.L$
	0x0010 10 48 11 c8 48 89 44 24 20 c3                    .H..H.D$ .
"".AddM<1> STEXT nosplit size=58 args=0x18 locals=0x0 funcid=0x0
	0x0000 00000 (/home/laijh/go/src/source-notes/go1.16/test/codegen/mathbits.go:431)	TEXT	"".AddM(SB), NOSPLIT|ABIInternal, $0-24
	0x0000 00000 (/home/laijh/go/src/source-notes/go1.16/test/codegen/mathbits.go:431)	FUNCDATA	$0, gclocals·9aa48eca674789341e2d6be6614c399c(SB)
	0x0000 00000 (/home/laijh/go/src/source-notes/go1.16/test/codegen/mathbits.go:431)	FUNCDATA	$1, gclocals·69c1753bd5f81501d95132d08af04464(SB)
	0x0000 00000 (/home/laijh/go/src/source-notes/go1.16/test/codegen/mathbits.go:433)	MOVQ	"".p+8(SP), AX
	0x0005 00005 (/home/laijh/go/src/source-notes/go1.16/test/codegen/mathbits.go:433)	MOVQ	(AX), CX
	0x0008 00008 (/home/laijh/go/src/source-notes/go1.16/test/codegen/mathbits.go:433)	MOVQ	"".q+16(SP), DX
	0x000d 00013 (/home/laijh/go/src/source-notes/go1.16/test/codegen/mathbits.go:433)	MOVQ	(DX), BX
	0x0010 00016 (/home/laijh/go/src/source-notes/go1.16/test/codegen/mathbits.go:433)	ADDQ	CX, BX
	0x0013 00019 (/home/laijh/go/src/source-notes/go1.16/test/codegen/mathbits.go:433)	MOVQ	"".r+24(SP), CX
	0x0018 00024 (/home/laijh/go/src/source-notes/go1.16/test/codegen/mathbits.go:433)	MOVQ	BX, (CX)
	0x001b 00027 (/home/laijh/go/src/source-notes/go1.16/test/codegen/mathbits.go:437)	MOVQ	8(AX), BX
	0x001f 00031 (/home/laijh/go/src/source-notes/go1.16/test/codegen/mathbits.go:437)	MOVQ	8(DX), SI
	0x0023 00035 (/home/laijh/go/src/source-notes/go1.16/test/codegen/mathbits.go:437)	ADCQ	BX, SI
	0x0026 00038 (/home/laijh/go/src/source-notes/go1.16/test/codegen/mathbits.go:437)	MOVQ	SI, 8(CX)
	0x002a 00042 (/home/laijh/go/src/source-notes/go1.16/test/codegen/mathbits.go:438)	MOVQ	16(AX), AX
	0x002e 00046 (/home/laijh/go/src/source-notes/go1.16/test/codegen/mathbits.go:438)	MOVQ	16(DX), DX
	0x0032 00050 (/home/laijh/go/src/source-notes/go1.16/test/codegen/mathbits.go:438)	ADCQ	DX, AX
	0x0035 00053 (/home/laijh/go/src/source-notes/go1.16/test/codegen/mathbits.go:438)	MOVQ	AX, 16(CX)
	0x0039 00057 (/home/laijh/go/src/source-notes/go1.16/test/codegen/mathbits.go:439)	RET
	0x0000 48 8b 44 24 08 48 8b 08 48 8b 54 24 10 48 8b 1a  H.D$.H..H.T$.H..
	0x0010 48 01 cb 48 8b 4c 24 18 48 89 19 48 8b 58 08 48  H..H.L$.H..H.X.H
	0x0020 8b 72 08 48 11 de 48 89 71 08 48 8b 40 10 48 8b  .r.H..H.q.H.@.H.
	0x0030 52 10 48 11 d0 48 89 41 10 c3                    R.H..H.A..
"".Add64<1> STEXT nosplit size=37 args=0x28 locals=0x0 funcid=0x0
	0x0000 00000 (/home/laijh/go/src/source-notes/go1.16/test/codegen/mathbits.go:441)	TEXT	"".Add64(SB), NOSPLIT|ABIInternal, $0-40
	0x0000 00000 (/home/laijh/go/src/source-notes/go1.16/test/codegen/mathbits.go:441)	FUNCDATA	$0, gclocals·33cdeccccebe80329f1fdbee7f5874cb(SB)
	0x0000 00000 (/home/laijh/go/src/source-notes/go1.16/test/codegen/mathbits.go:441)	FUNCDATA	$1, gclocals·33cdeccccebe80329f1fdbee7f5874cb(SB)
	0x0000 00000 (/home/laijh/go/src/source-notes/go1.16/test/codegen/mathbits.go:447)	MOVQ	"".ci+24(SP), AX
	0x0005 00005 (/home/laijh/go/src/source-notes/go1.16/test/codegen/mathbits.go:447)	NEGL	AX
	0x0007 00007 (/home/laijh/go/src/source-notes/go1.16/test/codegen/mathbits.go:447)	MOVQ	"".y+16(SP), AX
	0x000c 00012 (/home/laijh/go/src/source-notes/go1.16/test/codegen/mathbits.go:447)	MOVQ	"".x+8(SP), CX
	0x0011 00017 (/home/laijh/go/src/source-notes/go1.16/test/codegen/mathbits.go:447)	ADCQ	CX, AX
	0x0014 00020 (/home/laijh/go/src/source-notes/go1.16/test/codegen/mathbits.go:447)	MOVQ	AX, "".r+32(SP)
	0x0019 00025 (/home/laijh/go/src/source-notes/go1.16/test/codegen/mathbits.go:447)	SBBQ	AX, AX
	0x001c 00028 (/home/laijh/go/src/source-notes/go1.16/test/codegen/mathbits.go:447)	NEGQ	AX
	0x001f 00031 (/home/laijh/go/src/source-notes/go1.16/test/codegen/mathbits.go:447)	MOVQ	AX, "".co+40(SP)
	0x0024 00036 (/home/laijh/go/src/source-notes/go1.16/test/codegen/mathbits.go:447)	RET
	0x0000 48 8b 44 24 18 f7 d8 48 8b 44 24 10 48 8b 4c 24  H.D$...H.D$.H.L$
	0x0010 08 48 11 c8 48 89 44 24 20 48 19 c0 48 f7 d8 48  .H..H.D$ H..H..H
	0x0020 89 44 24 28 c3                                   .D$(.
"".Add64C<1> STEXT nosplit size=33 args=0x20 locals=0x0 funcid=0x0
	0x0000 00000 (/home/laijh/go/src/source-notes/go1.16/test/codegen/mathbits.go:450)	TEXT	"".Add64C(SB), NOSPLIT|ABIInternal, $0-32
	0x0000 00000 (/home/laijh/go/src/source-notes/go1.16/test/codegen/mathbits.go:450)	FUNCDATA	$0, gclocals·33cdeccccebe80329f1fdbee7f5874cb(SB)
	0x0000 00000 (/home/laijh/go/src/source-notes/go1.16/test/codegen/mathbits.go:450)	FUNCDATA	$1, gclocals·33cdeccccebe80329f1fdbee7f5874cb(SB)
	0x0000 00000 (/home/laijh/go/src/source-notes/go1.16/test/codegen/mathbits.go:456)	MOVQ	"".ci+16(SP), AX
	0x0005 00005 (/home/laijh/go/src/source-notes/go1.16/test/codegen/mathbits.go:456)	NEGL	AX
	0x0007 00007 (/home/laijh/go/src/source-notes/go1.16/test/codegen/mathbits.go:456)	MOVQ	"".x+8(SP), AX
	0x000c 00012 (/home/laijh/go/src/source-notes/go1.16/test/codegen/mathbits.go:456)	ADCQ	$7, AX
	0x0010 00016 (/home/laijh/go/src/source-notes/go1.16/test/codegen/mathbits.go:456)	MOVQ	AX, "".r+24(SP)
	0x0015 00021 (/home/laijh/go/src/source-notes/go1.16/test/codegen/mathbits.go:456)	SBBQ	AX, AX
	0x0018 00024 (/home/laijh/go/src/source-notes/go1.16/test/codegen/mathbits.go:456)	NEGQ	AX
	0x001b 00027 (/home/laijh/go/src/source-notes/go1.16/test/codegen/mathbits.go:456)	MOVQ	AX, "".co+32(SP)
	0x0020 00032 (/home/laijh/go/src/source-notes/go1.16/test/codegen/mathbits.go:456)	RET
	0x0000 48 8b 44 24 10 f7 d8 48 8b 44 24 08 48 83 d0 07  H.D$...H.D$.H...
	0x0010 48 89 44 24 18 48 19 c0 48 f7 d8 48 89 44 24 20  H.D$.H..H..H.D$ 
	0x0020 c3                                               .
"".Add64Z<1> STEXT nosplit size=30 args=0x20 locals=0x0 funcid=0x0
	0x0000 00000 (/home/laijh/go/src/source-notes/go1.16/test/codegen/mathbits.go:459)	TEXT	"".Add64Z(SB), NOSPLIT|ABIInternal, $0-32
	0x0000 00000 (/home/laijh/go/src/source-notes/go1.16/test/codegen/mathbits.go:459)	FUNCDATA	$0, gclocals·33cdeccccebe80329f1fdbee7f5874cb(SB)
	0x0000 00000 (/home/laijh/go/src/source-notes/go1.16/test/codegen/mathbits.go:459)	FUNCDATA	$1, gclocals·33cdeccccebe80329f1fdbee7f5874cb(SB)
	0x0000 00000 (/home/laijh/go/src/source-notes/go1.16/test/codegen/mathbits.go:465)	MOVQ	"".y+16(SP), AX
	0x0005 00005 (/home/laijh/go/src/source-notes/go1.16/test/codegen/mathbits.go:465)	MOVQ	"".x+8(SP), CX
	0x000a 00010 (/home/laijh/go/src/source-notes/go1.16/test/codegen/mathbits.go:465)	ADDQ	CX, AX
	0x000d 00013 (/home/laijh/go/src/source-notes/go1.16/test/codegen/mathbits.go:465)	MOVQ	AX, "".r+24(SP)
	0x0012 00018 (/home/laijh/go/src/source-notes/go1.16/test/codegen/mathbits.go:465)	SBBQ	AX, AX
	0x0015 00021 (/home/laijh/go/src/source-notes/go1.16/test/codegen/mathbits.go:465)	NEGQ	AX
	0x0018 00024 (/home/laijh/go/src/source-notes/go1.16/test/codegen/mathbits.go:465)	MOVQ	AX, "".co+32(SP)
	0x001d 00029 (/home/laijh/go/src/source-notes/go1.16/test/codegen/mathbits.go:465)	RET
	0x0000 48 8b 44 24 10 48 8b 4c 24 08 48 01 c8 48 89 44  H.D$.H.L$.H..H.D
	0x0010 24 18 48 19 c0 48 f7 d8 48 89 44 24 20 c3        $.H..H..H.D$ .
"".Add64R<1> STEXT nosplit size=26 args=0x20 locals=0x0 funcid=0x0
	0x0000 00000 (/home/laijh/go/src/source-notes/go1.16/test/codegen/mathbits.go:468)	TEXT	"".Add64R(SB), NOSPLIT|ABIInternal, $0-32
	0x0000 00000 (/home/laijh/go/src/source-notes/go1.16/test/codegen/mathbits.go:468)	FUNCDATA	$0, gclocals·33cdeccccebe80329f1fdbee7f5874cb(SB)
	0x0000 00000 (/home/laijh/go/src/source-notes/go1.16/test/codegen/mathbits.go:468)	FUNCDATA	$1, gclocals·33cdeccccebe80329f1fdbee7f5874cb(SB)
	0x0000 00000 (/home/laijh/go/src/source-notes/go1.16/test/codegen/mathbits.go:474)	MOVQ	"".ci+24(SP), AX
	0x0005 00005 (/home/laijh/go/src/source-notes/go1.16/test/codegen/mathbits.go:474)	NEGL	AX
	0x0007 00007 (/home/laijh/go/src/source-notes/go1.16/test/codegen/mathbits.go:474)	MOVQ	"".x+8(SP), AX
	0x000c 00012 (/home/laijh/go/src/source-notes/go1.16/test/codegen/mathbits.go:474)	MOVQ	"".y+16(SP), CX
	0x0011 00017 (/home/laijh/go/src/source-notes/go1.16/test/codegen/mathbits.go:474)	ADCQ	CX, AX
	0x0014 00020 (/home/laijh/go/src/source-notes/go1.16/test/codegen/mathbits.go:475)	MOVQ	AX, "".~r3+32(SP)
	0x0019 00025 (/home/laijh/go/src/source-notes/go1.16/test/codegen/mathbits.go:475)	RET
	0x0000 48 8b 44 24 18 f7 d8 48 8b 44 24 08 48 8b 4c 24  H.D$...H.D$.H.L$
	0x0010 10 48 11 c8 48 89 44 24 20 c3                    .H..H.D$ .
"".Add64M<1> STEXT nosplit size=58 args=0x18 locals=0x0 funcid=0x0
	0x0000 00000 (/home/laijh/go/src/source-notes/go1.16/test/codegen/mathbits.go:477)	TEXT	"".Add64M(SB), NOSPLIT|ABIInternal, $0-24
	0x0000 00000 (/home/laijh/go/src/source-notes/go1.16/test/codegen/mathbits.go:477)	FUNCDATA	$0, gclocals·9aa48eca674789341e2d6be6614c399c(SB)
	0x0000 00000 (/home/laijh/go/src/source-notes/go1.16/test/codegen/mathbits.go:477)	FUNCDATA	$1, gclocals·69c1753bd5f81501d95132d08af04464(SB)
	0x0000 00000 (/home/laijh/go/src/source-notes/go1.16/test/codegen/mathbits.go:479)	MOVQ	"".p+8(SP), AX
	0x0005 00005 (/home/laijh/go/src/source-notes/go1.16/test/codegen/mathbits.go:479)	MOVQ	(AX), CX
	0x0008 00008 (/home/laijh/go/src/source-notes/go1.16/test/codegen/mathbits.go:479)	MOVQ	"".q+16(SP), DX
	0x000d 00013 (/home/laijh/go/src/source-notes/go1.16/test/codegen/mathbits.go:479)	MOVQ	(DX), BX
	0x0010 00016 (/home/laijh/go/src/source-notes/go1.16/test/codegen/mathbits.go:479)	ADDQ	CX, BX
	0x0013 00019 (/home/laijh/go/src/source-notes/go1.16/test/codegen/mathbits.go:479)	MOVQ	"".r+24(SP), CX
	0x0018 00024 (/home/laijh/go/src/source-notes/go1.16/test/codegen/mathbits.go:479)	MOVQ	BX, (CX)
	0x001b 00027 (/home/laijh/go/src/source-notes/go1.16/test/codegen/mathbits.go:485)	MOVQ	8(AX), BX
	0x001f 00031 (/home/laijh/go/src/source-notes/go1.16/test/codegen/mathbits.go:485)	MOVQ	8(DX), SI
	0x0023 00035 (/home/laijh/go/src/source-notes/go1.16/test/codegen/mathbits.go:485)	ADCQ	BX, SI
	0x0026 00038 (/home/laijh/go/src/source-notes/go1.16/test/codegen/mathbits.go:485)	MOVQ	SI, 8(CX)
	0x002a 00042 (/home/laijh/go/src/source-notes/go1.16/test/codegen/mathbits.go:486)	MOVQ	16(AX), AX
	0x002e 00046 (/home/laijh/go/src/source-notes/go1.16/test/codegen/mathbits.go:486)	MOVQ	16(DX), DX
	0x0032 00050 (/home/laijh/go/src/source-notes/go1.16/test/codegen/mathbits.go:486)	ADCQ	DX, AX
	0x0035 00053 (/home/laijh/go/src/source-notes/go1.16/test/codegen/mathbits.go:486)	MOVQ	AX, 16(CX)
	0x0039 00057 (/home/laijh/go/src/source-notes/go1.16/test/codegen/mathbits.go:487)	RET
	0x0000 48 8b 44 24 08 48 8b 08 48 8b 54 24 10 48 8b 1a  H.D$.H..H.T$.H..
	0x0010 48 01 cb 48 8b 4c 24 18 48 89 19 48 8b 58 08 48  H..H.L$.H..H.X.H
	0x0020 8b 72 08 48 11 de 48 89 71 08 48 8b 40 10 48 8b  .r.H..H.q.H.@.H.
	0x0030 52 10 48 11 d0 48 89 41 10 c3                    R.H..H.A..
"".Add64PanicOnOverflowEQ<1> STEXT size=109 args=0x18 locals=0x18 funcid=0x0
	0x0000 00000 (/home/laijh/go/src/source-notes/go1.16/test/codegen/mathbits.go:489)	TEXT	"".Add64PanicOnOverflowEQ(SB), ABIInternal, $24-24
	0x0000 00000 (/home/laijh/go/src/source-notes/go1.16/test/codegen/mathbits.go:489)	MOVQ	(TLS), CX
	0x0009 00009 (/home/laijh/go/src/source-notes/go1.16/test/codegen/mathbits.go:489)	CMPQ	SP, 16(CX)
	0x000d 00013 (/home/laijh/go/src/source-notes/go1.16/test/codegen/mathbits.go:489)	PCDATA	$0, $-2
	0x000d 00013 (/home/laijh/go/src/source-notes/go1.16/test/codegen/mathbits.go:489)	JLS	102
	0x000f 00015 (/home/laijh/go/src/source-notes/go1.16/test/codegen/mathbits.go:489)	PCDATA	$0, $-1
	0x000f 00015 (/home/laijh/go/src/source-notes/go1.16/test/codegen/mathbits.go:489)	SUBQ	$24, SP
	0x0013 00019 (/home/laijh/go/src/source-notes/go1.16/test/codegen/mathbits.go:489)	MOVQ	BP, 16(SP)
	0x0018 00024 (/home/laijh/go/src/source-notes/go1.16/test/codegen/mathbits.go:489)	LEAQ	16(SP), BP
	0x001d 00029 (/home/laijh/go/src/source-notes/go1.16/test/codegen/mathbits.go:489)	FUNCDATA	$0, gclocals·33cdeccccebe80329f1fdbee7f5874cb(SB)
	0x001d 00029 (/home/laijh/go/src/source-notes/go1.16/test/codegen/mathbits.go:489)	FUNCDATA	$1, gclocals·33cdeccccebe80329f1fdbee7f5874cb(SB)
	0x001d 00029 (/home/laijh/go/src/source-notes/go1.16/test/codegen/mathbits.go:490)	MOVQ	"".b+40(SP), AX
	0x0022 00034 (/home/laijh/go/src/source-notes/go1.16/test/codegen/mathbits.go:490)	MOVQ	"".a+32(SP), CX
	0x0027 00039 (/home/laijh/go/src/source-notes/go1.16/test/codegen/mathbits.go:490)	ADDQ	CX, AX
	0x002a 00042 (/home/laijh/go/src/source-notes/go1.16/test/codegen/mathbits.go:490)	SBBQ	CX, CX
	0x002d 00045 (/home/laijh/go/src/source-notes/go1.16/test/codegen/mathbits.go:490)	NEGQ	CX
	0x0030 00048 (/home/laijh/go/src/source-notes/go1.16/test/codegen/mathbits.go:492)	CMPQ	CX, $1
	0x0034 00052 (/home/laijh/go/src/source-notes/go1.16/test/codegen/mathbits.go:492)	JEQ	69
	0x0036 00054 (/home/laijh/go/src/source-notes/go1.16/test/codegen/mathbits.go:495)	MOVQ	AX, "".~r2+48(SP)
	0x003b 00059 (/home/laijh/go/src/source-notes/go1.16/test/codegen/mathbits.go:495)	MOVQ	16(SP), BP
	0x0040 00064 (/home/laijh/go/src/source-notes/go1.16/test/codegen/mathbits.go:495)	ADDQ	$24, SP
	0x0044 00068 (/home/laijh/go/src/source-notes/go1.16/test/codegen/mathbits.go:495)	RET
	0x0045 00069 (/home/laijh/go/src/source-notes/go1.16/test/codegen/mathbits.go:493)	LEAQ	type.string(SB), AX
	0x004c 00076 (/home/laijh/go/src/source-notes/go1.16/test/codegen/mathbits.go:493)	MOVQ	AX, (SP)
	0x0050 00080 (/home/laijh/go/src/source-notes/go1.16/test/codegen/mathbits.go:493)	LEAQ	""..stmp_0(SB), AX
	0x0057 00087 (/home/laijh/go/src/source-notes/go1.16/test/codegen/mathbits.go:493)	MOVQ	AX, 8(SP)
	0x005c 00092 (/home/laijh/go/src/source-notes/go1.16/test/codegen/mathbits.go:493)	PCDATA	$1, $0
	0x005c 00092 (/home/laijh/go/src/source-notes/go1.16/test/codegen/mathbits.go:493)	NOP
	0x0060 00096 (/home/laijh/go/src/source-notes/go1.16/test/codegen/mathbits.go:493)	CALL	runtime.gopanic(SB)
	0x0065 00101 (/home/laijh/go/src/source-notes/go1.16/test/codegen/mathbits.go:493)	XCHGL	AX, AX
	0x0066 00102 (/home/laijh/go/src/source-notes/go1.16/test/codegen/mathbits.go:493)	NOP
	0x0066 00102 (/home/laijh/go/src/source-notes/go1.16/test/codegen/mathbits.go:489)	PCDATA	$1, $-1
	0x0066 00102 (/home/laijh/go/src/source-notes/go1.16/test/codegen/mathbits.go:489)	PCDATA	$0, $-2
	0x0066 00102 (/home/laijh/go/src/source-notes/go1.16/test/codegen/mathbits.go:489)	CALL	runtime.morestack_noctxt(SB)
	0x006b 00107 (/home/laijh/go/src/source-notes/go1.16/test/codegen/mathbits.go:489)	PCDATA	$0, $-1
	0x006b 00107 (/home/laijh/go/src/source-notes/go1.16/test/codegen/mathbits.go:489)	JMP	0
	0x0000 64 48 8b 0c 25 00 00 00 00 48 3b 61 10 76 57 48  dH..%....H;a.vWH
	0x0010 83 ec 18 48 89 6c 24 10 48 8d 6c 24 10 48 8b 44  ...H.l$.H.l$.H.D
	0x0020 24 28 48 8b 4c 24 20 48 01 c8 48 19 c9 48 f7 d9  $(H.L$ H..H..H..
	0x0030 48 83 f9 01 74 0f 48 89 44 24 30 48 8b 6c 24 10  H...t.H.D$0H.l$.
	0x0040 48 83 c4 18 c3 48 8d 05 00 00 00 00 48 89 04 24  H....H......H..$
	0x0050 48 8d 05 00 00 00 00 48 89 44 24 08 0f 1f 40 00  H......H.D$...@.
	0x0060 e8 00 00 00 00 90 e8 00 00 00 00 eb 93           .............
	rel 2+0 t=25 type.string<0>+0
	rel 5+4 t=17 TLS+0
	rel 72+4 t=16 type.string<0>+0
	rel 83+4 t=16 ""..stmp_0<0>+0
	rel 97+4 t=8 runtime.gopanic<1>+0
	rel 103+4 t=8 runtime.morestack_noctxt<0>+0
"".Add64PanicOnOverflowNE<1> STEXT size=109 args=0x18 locals=0x18 funcid=0x0
	0x0000 00000 (/home/laijh/go/src/source-notes/go1.16/test/codegen/mathbits.go:498)	TEXT	"".Add64PanicOnOverflowNE(SB), ABIInternal, $24-24
	0x0000 00000 (/home/laijh/go/src/source-notes/go1.16/test/codegen/mathbits.go:498)	MOVQ	(TLS), CX
	0x0009 00009 (/home/laijh/go/src/source-notes/go1.16/test/codegen/mathbits.go:498)	CMPQ	SP, 16(CX)
	0x000d 00013 (/home/laijh/go/src/source-notes/go1.16/test/codegen/mathbits.go:498)	PCDATA	$0, $-2
	0x000d 00013 (/home/laijh/go/src/source-notes/go1.16/test/codegen/mathbits.go:498)	JLS	102
	0x000f 00015 (/home/laijh/go/src/source-notes/go1.16/test/codegen/mathbits.go:498)	PCDATA	$0, $-1
	0x000f 00015 (/home/laijh/go/src/source-notes/go1.16/test/codegen/mathbits.go:498)	SUBQ	$24, SP
	0x0013 00019 (/home/laijh/go/src/source-notes/go1.16/test/codegen/mathbits.go:498)	MOVQ	BP, 16(SP)
	0x0018 00024 (/home/laijh/go/src/source-notes/go1.16/test/codegen/mathbits.go:498)	LEAQ	16(SP), BP
	0x001d 00029 (/home/laijh/go/src/source-notes/go1.16/test/codegen/mathbits.go:498)	FUNCDATA	$0, gclocals·33cdeccccebe80329f1fdbee7f5874cb(SB)
	0x001d 00029 (/home/laijh/go/src/source-notes/go1.16/test/codegen/mathbits.go:498)	FUNCDATA	$1, gclocals·33cdeccccebe80329f1fdbee7f5874cb(SB)
	0x001d 00029 (/home/laijh/go/src/source-notes/go1.16/test/codegen/mathbits.go:499)	MOVQ	"".b+40(SP), AX
	0x0022 00034 (/home/laijh/go/src/source-notes/go1.16/test/codegen/mathbits.go:499)	MOVQ	"".a+32(SP), CX
	0x0027 00039 (/home/laijh/go/src/source-notes/go1.16/test/codegen/mathbits.go:499)	ADDQ	CX, AX
	0x002a 00042 (/home/laijh/go/src/source-notes/go1.16/test/codegen/mathbits.go:499)	SBBQ	CX, CX
	0x002d 00045 (/home/laijh/go/src/source-notes/go1.16/test/codegen/mathbits.go:499)	NEGQ	CX
	0x0030 00048 (/home/laijh/go/src/source-notes/go1.16/test/codegen/mathbits.go:501)	TESTQ	CX, CX
	0x0033 00051 (/home/laijh/go/src/source-notes/go1.16/test/codegen/mathbits.go:501)	JNE	68
	0x0035 00053 (/home/laijh/go/src/source-notes/go1.16/test/codegen/mathbits.go:504)	MOVQ	AX, "".~r2+48(SP)
	0x003a 00058 (/home/laijh/go/src/source-notes/go1.16/test/codegen/mathbits.go:504)	MOVQ	16(SP), BP
	0x003f 00063 (/home/laijh/go/src/source-notes/go1.16/test/codegen/mathbits.go:504)	ADDQ	$24, SP
	0x0043 00067 (/home/laijh/go/src/source-notes/go1.16/test/codegen/mathbits.go:504)	RET
	0x0044 00068 (/home/laijh/go/src/source-notes/go1.16/test/codegen/mathbits.go:502)	LEAQ	type.string(SB), AX
	0x004b 00075 (/home/laijh/go/src/source-notes/go1.16/test/codegen/mathbits.go:502)	MOVQ	AX, (SP)
	0x004f 00079 (/home/laijh/go/src/source-notes/go1.16/test/codegen/mathbits.go:502)	LEAQ	""..stmp_1(SB), AX
	0x0056 00086 (/home/laijh/go/src/source-notes/go1.16/test/codegen/mathbits.go:502)	MOVQ	AX, 8(SP)
	0x005b 00091 (/home/laijh/go/src/source-notes/go1.16/test/codegen/mathbits.go:502)	PCDATA	$1, $0
	0x005b 00091 (/home/laijh/go/src/source-notes/go1.16/test/codegen/mathbits.go:502)	NOP
	0x0060 00096 (/home/laijh/go/src/source-notes/go1.16/test/codegen/mathbits.go:502)	CALL	runtime.gopanic(SB)
	0x0065 00101 (/home/laijh/go/src/source-notes/go1.16/test/codegen/mathbits.go:502)	XCHGL	AX, AX
	0x0066 00102 (/home/laijh/go/src/source-notes/go1.16/test/codegen/mathbits.go:502)	NOP
	0x0066 00102 (/home/laijh/go/src/source-notes/go1.16/test/codegen/mathbits.go:498)	PCDATA	$1, $-1
	0x0066 00102 (/home/laijh/go/src/source-notes/go1.16/test/codegen/mathbits.go:498)	PCDATA	$0, $-2
	0x0066 00102 (/home/laijh/go/src/source-notes/go1.16/test/codegen/mathbits.go:498)	CALL	runtime.morestack_noctxt(SB)
	0x006b 00107 (/home/laijh/go/src/source-notes/go1.16/test/codegen/mathbits.go:498)	PCDATA	$0, $-1
	0x006b 00107 (/home/laijh/go/src/source-notes/go1.16/test/codegen/mathbits.go:498)	JMP	0
	0x0000 64 48 8b 0c 25 00 00 00 00 48 3b 61 10 76 57 48  dH..%....H;a.vWH
	0x0010 83 ec 18 48 89 6c 24 10 48 8d 6c 24 10 48 8b 44  ...H.l$.H.l$.H.D
	0x0020 24 28 48 8b 4c 24 20 48 01 c8 48 19 c9 48 f7 d9  $(H.L$ H..H..H..
	0x0030 48 85 c9 75 0f 48 89 44 24 30 48 8b 6c 24 10 48  H..u.H.D$0H.l$.H
	0x0040 83 c4 18 c3 48 8d 05 00 00 00 00 48 89 04 24 48  ....H......H..$H
	0x0050 8d 05 00 00 00 00 48 89 44 24 08 0f 1f 44 00 00  ......H.D$...D..
	0x0060 e8 00 00 00 00 90 e8 00 00 00 00 eb 93           .............
	rel 2+0 t=25 type.string<0>+0
	rel 5+4 t=17 TLS+0
	rel 71+4 t=16 type.string<0>+0
	rel 82+4 t=16 ""..stmp_1<0>+0
	rel 97+4 t=8 runtime.gopanic<1>+0
	rel 103+4 t=8 runtime.morestack_noctxt<0>+0
"".Add64PanicOnOverflowGT<1> STEXT size=109 args=0x18 locals=0x18 funcid=0x0
	0x0000 00000 (/home/laijh/go/src/source-notes/go1.16/test/codegen/mathbits.go:507)	TEXT	"".Add64PanicOnOverflowGT(SB), ABIInternal, $24-24
	0x0000 00000 (/home/laijh/go/src/source-notes/go1.16/test/codegen/mathbits.go:507)	MOVQ	(TLS), CX
	0x0009 00009 (/home/laijh/go/src/source-notes/go1.16/test/codegen/mathbits.go:507)	CMPQ	SP, 16(CX)
	0x000d 00013 (/home/laijh/go/src/source-notes/go1.16/test/codegen/mathbits.go:507)	PCDATA	$0, $-2
	0x000d 00013 (/home/laijh/go/src/source-notes/go1.16/test/codegen/mathbits.go:507)	JLS	102
	0x000f 00015 (/home/laijh/go/src/source-notes/go1.16/test/codegen/mathbits.go:507)	PCDATA	$0, $-1
	0x000f 00015 (/home/laijh/go/src/source-notes/go1.16/test/codegen/mathbits.go:507)	SUBQ	$24, SP
	0x0013 00019 (/home/laijh/go/src/source-notes/go1.16/test/codegen/mathbits.go:507)	MOVQ	BP, 16(SP)
	0x0018 00024 (/home/laijh/go/src/source-notes/go1.16/test/codegen/mathbits.go:507)	LEAQ	16(SP), BP
	0x001d 00029 (/home/laijh/go/src/source-notes/go1.16/test/codegen/mathbits.go:507)	FUNCDATA	$0, gclocals·33cdeccccebe80329f1fdbee7f5874cb(SB)
	0x001d 00029 (/home/laijh/go/src/source-notes/go1.16/test/codegen/mathbits.go:507)	FUNCDATA	$1, gclocals·33cdeccccebe80329f1fdbee7f5874cb(SB)
	0x001d 00029 (/home/laijh/go/src/source-notes/go1.16/test/codegen/mathbits.go:508)	MOVQ	"".b+40(SP), AX
	0x0022 00034 (/home/laijh/go/src/source-notes/go1.16/test/codegen/mathbits.go:508)	MOVQ	"".a+32(SP), CX
	0x0027 00039 (/home/laijh/go/src/source-notes/go1.16/test/codegen/mathbits.go:508)	ADDQ	CX, AX
	0x002a 00042 (/home/laijh/go/src/source-notes/go1.16/test/codegen/mathbits.go:508)	SBBQ	CX, CX
	0x002d 00045 (/home/laijh/go/src/source-notes/go1.16/test/codegen/mathbits.go:508)	NEGQ	CX
	0x0030 00048 (/home/laijh/go/src/source-notes/go1.16/test/codegen/mathbits.go:510)	TESTQ	CX, CX
	0x0033 00051 (/home/laijh/go/src/source-notes/go1.16/test/codegen/mathbits.go:510)	JHI	68
	0x0035 00053 (/home/laijh/go/src/source-notes/go1.16/test/codegen/mathbits.go:513)	MOVQ	AX, "".~r2+48(SP)
	0x003a 00058 (/home/laijh/go/src/source-notes/go1.16/test/codegen/mathbits.go:513)	MOVQ	16(SP), BP
	0x003f 00063 (/home/laijh/go/src/source-notes/go1.16/test/codegen/mathbits.go:513)	ADDQ	$24, SP
	0x0043 00067 (/home/laijh/go/src/source-notes/go1.16/test/codegen/mathbits.go:513)	RET
	0x0044 00068 (/home/laijh/go/src/source-notes/go1.16/test/codegen/mathbits.go:511)	LEAQ	type.string(SB), AX
	0x004b 00075 (/home/laijh/go/src/source-notes/go1.16/test/codegen/mathbits.go:511)	MOVQ	AX, (SP)
	0x004f 00079 (/home/laijh/go/src/source-notes/go1.16/test/codegen/mathbits.go:511)	LEAQ	""..stmp_2(SB), AX
	0x0056 00086 (/home/laijh/go/src/source-notes/go1.16/test/codegen/mathbits.go:511)	MOVQ	AX, 8(SP)
	0x005b 00091 (/home/laijh/go/src/source-notes/go1.16/test/codegen/mathbits.go:511)	PCDATA	$1, $0
	0x005b 00091 (/home/laijh/go/src/source-notes/go1.16/test/codegen/mathbits.go:511)	NOP
	0x0060 00096 (/home/laijh/go/src/source-notes/go1.16/test/codegen/mathbits.go:511)	CALL	runtime.gopanic(SB)
	0x0065 00101 (/home/laijh/go/src/source-notes/go1.16/test/codegen/mathbits.go:511)	XCHGL	AX, AX
	0x0066 00102 (/home/laijh/go/src/source-notes/go1.16/test/codegen/mathbits.go:511)	NOP
	0x0066 00102 (/home/laijh/go/src/source-notes/go1.16/test/codegen/mathbits.go:507)	PCDATA	$1, $-1
	0x0066 00102 (/home/laijh/go/src/source-notes/go1.16/test/codegen/mathbits.go:507)	PCDATA	$0, $-2
	0x0066 00102 (/home/laijh/go/src/source-notes/go1.16/test/codegen/mathbits.go:507)	CALL	runtime.morestack_noctxt(SB)
	0x006b 00107 (/home/laijh/go/src/source-notes/go1.16/test/codegen/mathbits.go:507)	PCDATA	$0, $-1
	0x006b 00107 (/home/laijh/go/src/source-notes/go1.16/test/codegen/mathbits.go:507)	JMP	0
	0x0000 64 48 8b 0c 25 00 00 00 00 48 3b 61 10 76 57 48  dH..%....H;a.vWH
	0x0010 83 ec 18 48 89 6c 24 10 48 8d 6c 24 10 48 8b 44  ...H.l$.H.l$.H.D
	0x0020 24 28 48 8b 4c 24 20 48 01 c8 48 19 c9 48 f7 d9  $(H.L$ H..H..H..
	0x0030 48 85 c9 77 0f 48 89 44 24 30 48 8b 6c 24 10 48  H..w.H.D$0H.l$.H
	0x0040 83 c4 18 c3 48 8d 05 00 00 00 00 48 89 04 24 48  ....H......H..$H
	0x0050 8d 05 00 00 00 00 48 89 44 24 08 0f 1f 44 00 00  ......H.D$...D..
	0x0060 e8 00 00 00 00 90 e8 00 00 00 00 eb 93           .............
	rel 2+0 t=25 type.string<0>+0
	rel 5+4 t=17 TLS+0
	rel 71+4 t=16 type.string<0>+0
	rel 82+4 t=16 ""..stmp_2<0>+0
	rel 97+4 t=8 runtime.gopanic<1>+0
	rel 103+4 t=8 runtime.morestack_noctxt<0>+0
"".Add64MPanicOnOverflowEQ<1> STEXT size=138 args=0x30 locals=0x18 funcid=0x0
	0x0000 00000 (/home/laijh/go/src/source-notes/go1.16/test/codegen/mathbits.go:516)	TEXT	"".Add64MPanicOnOverflowEQ(SB), ABIInternal, $24-48
	0x0000 00000 (/home/laijh/go/src/source-notes/go1.16/test/codegen/mathbits.go:516)	MOVQ	(TLS), CX
	0x0009 00009 (/home/laijh/go/src/source-notes/go1.16/test/codegen/mathbits.go:516)	CMPQ	SP, 16(CX)
	0x000d 00013 (/home/laijh/go/src/source-notes/go1.16/test/codegen/mathbits.go:516)	PCDATA	$0, $-2
	0x000d 00013 (/home/laijh/go/src/source-notes/go1.16/test/codegen/mathbits.go:516)	JLS	128
	0x000f 00015 (/home/laijh/go/src/source-notes/go1.16/test/codegen/mathbits.go:516)	PCDATA	$0, $-1
	0x000f 00015 (/home/laijh/go/src/source-notes/go1.16/test/codegen/mathbits.go:516)	SUBQ	$24, SP
	0x0013 00019 (/home/laijh/go/src/source-notes/go1.16/test/codegen/mathbits.go:516)	MOVQ	BP, 16(SP)
	0x0018 00024 (/home/laijh/go/src/source-notes/go1.16/test/codegen/mathbits.go:516)	LEAQ	16(SP), BP
	0x001d 00029 (/home/laijh/go/src/source-notes/go1.16/test/codegen/mathbits.go:516)	FUNCDATA	$0, gclocals·33cdeccccebe80329f1fdbee7f5874cb(SB)
	0x001d 00029 (/home/laijh/go/src/source-notes/go1.16/test/codegen/mathbits.go:516)	FUNCDATA	$1, gclocals·33cdeccccebe80329f1fdbee7f5874cb(SB)
	0x001d 00029 (/home/laijh/go/src/source-notes/go1.16/test/codegen/mathbits.go:516)	XORPS	X0, X0
	0x0020 00032 (/home/laijh/go/src/source-notes/go1.16/test/codegen/mathbits.go:516)	MOVUPS	X0, "".~r2+64(SP)
	0x0025 00037 (/home/laijh/go/src/source-notes/go1.16/test/codegen/mathbits.go:519)	MOVQ	"".a+32(SP), AX
	0x002a 00042 (/home/laijh/go/src/source-notes/go1.16/test/codegen/mathbits.go:519)	MOVQ	"".b+48(SP), CX
	0x002f 00047 (/home/laijh/go/src/source-notes/go1.16/test/codegen/mathbits.go:519)	ADDQ	AX, CX
	0x0032 00050 (/home/laijh/go/src/source-notes/go1.16/test/codegen/mathbits.go:520)	MOVQ	"".a+40(SP), AX
	0x0037 00055 (/home/laijh/go/src/source-notes/go1.16/test/codegen/mathbits.go:520)	MOVQ	"".b+56(SP), DX
	0x003c 00060 (/home/laijh/go/src/source-notes/go1.16/test/codegen/mathbits.go:520)	ADCQ	AX, DX
	0x003f 00063 (/home/laijh/go/src/source-notes/go1.16/test/codegen/mathbits.go:520)	SBBQ	AX, AX
	0x0042 00066 (/home/laijh/go/src/source-notes/go1.16/test/codegen/mathbits.go:520)	NEGQ	AX
	0x0045 00069 (/home/laijh/go/src/source-notes/go1.16/test/codegen/mathbits.go:522)	CMPQ	AX, $1
	0x0049 00073 (/home/laijh/go/src/source-notes/go1.16/test/codegen/mathbits.go:522)	JEQ	95
	0x004b 00075 (/home/laijh/go/src/source-notes/go1.16/test/codegen/mathbits.go:525)	MOVQ	CX, "".~r2+64(SP)
	0x0050 00080 (/home/laijh/go/src/source-notes/go1.16/test/codegen/mathbits.go:525)	MOVQ	DX, "".~r2+72(SP)
	0x0055 00085 (/home/laijh/go/src/source-notes/go1.16/test/codegen/mathbits.go:525)	MOVQ	16(SP), BP
	0x005a 00090 (/home/laijh/go/src/source-notes/go1.16/test/codegen/mathbits.go:525)	ADDQ	$24, SP
	0x005e 00094 (/home/laijh/go/src/source-notes/go1.16/test/codegen/mathbits.go:525)	RET
	0x005f 00095 (/home/laijh/go/src/source-notes/go1.16/test/codegen/mathbits.go:523)	LEAQ	type.string(SB), AX
	0x0066 00102 (/home/laijh/go/src/source-notes/go1.16/test/codegen/mathbits.go:523)	MOVQ	AX, (SP)
	0x006a 00106 (/home/laijh/go/src/source-notes/go1.16/test/codegen/mathbits.go:523)	LEAQ	""..stmp_3(SB), AX
	0x0071 00113 (/home/laijh/go/src/source-notes/go1.16/test/codegen/mathbits.go:523)	MOVQ	AX, 8(SP)
	0x0076 00118 (/home/laijh/go/src/source-notes/go1.16/test/codegen/mathbits.go:523)	PCDATA	$1, $0
	0x0076 00118 (/home/laijh/go/src/source-notes/go1.16/test/codegen/mathbits.go:523)	CALL	runtime.gopanic(SB)
	0x007b 00123 (/home/laijh/go/src/source-notes/go1.16/test/codegen/mathbits.go:523)	XCHGL	AX, AX
	0x007c 00124 (/home/laijh/go/src/source-notes/go1.16/test/codegen/mathbits.go:523)	NOP
	0x007c 00124 (/home/laijh/go/src/source-notes/go1.16/test/codegen/mathbits.go:516)	PCDATA	$1, $-1
	0x007c 00124 (/home/laijh/go/src/source-notes/go1.16/test/codegen/mathbits.go:516)	PCDATA	$0, $-2
	0x007c 00124 (/home/laijh/go/src/source-notes/go1.16/test/codegen/mathbits.go:516)	NOP
	0x0080 00128 (/home/laijh/go/src/source-notes/go1.16/test/codegen/mathbits.go:516)	CALL	runtime.morestack_noctxt(SB)
	0x0085 00133 (/home/laijh/go/src/source-notes/go1.16/test/codegen/mathbits.go:516)	PCDATA	$0, $-1
	0x0085 00133 (/home/laijh/go/src/source-notes/go1.16/test/codegen/mathbits.go:516)	JMP	0
	0x0000 64 48 8b 0c 25 00 00 00 00 48 3b 61 10 76 71 48  dH..%....H;a.vqH
	0x0010 83 ec 18 48 89 6c 24 10 48 8d 6c 24 10 0f 57 c0  ...H.l$.H.l$..W.
	0x0020 0f 11 44 24 40 48 8b 44 24 20 48 8b 4c 24 30 48  ..D$@H.D$ H.L$0H
	0x0030 01 c1 48 8b 44 24 28 48 8b 54 24 38 48 11 c2 48  ..H.D$(H.T$8H..H
	0x0040 19 c0 48 f7 d8 48 83 f8 01 74 14 48 89 4c 24 40  ..H..H...t.H.L$@
	0x0050 48 89 54 24 48 48 8b 6c 24 10 48 83 c4 18 c3 48  H.T$HH.l$.H....H
	0x0060 8d 05 00 00 00 00 48 89 04 24 48 8d 05 00 00 00  ......H..$H.....
	0x0070 00 48 89 44 24 08 e8 00 00 00 00 90 0f 1f 40 00  .H.D$.........@.
	0x0080 e8 00 00 00 00 e9 76 ff ff ff                    ......v...
	rel 2+0 t=25 type.string<0>+0
	rel 5+4 t=17 TLS+0
	rel 98+4 t=16 type.string<0>+0
	rel 109+4 t=16 ""..stmp_3<0>+0
	rel 119+4 t=8 runtime.gopanic<1>+0
	rel 129+4 t=8 runtime.morestack_noctxt<0>+0
"".Add64MPanicOnOverflowNE<1> STEXT size=138 args=0x30 locals=0x18 funcid=0x0
	0x0000 00000 (/home/laijh/go/src/source-notes/go1.16/test/codegen/mathbits.go:528)	TEXT	"".Add64MPanicOnOverflowNE(SB), ABIInternal, $24-48
	0x0000 00000 (/home/laijh/go/src/source-notes/go1.16/test/codegen/mathbits.go:528)	MOVQ	(TLS), CX
	0x0009 00009 (/home/laijh/go/src/source-notes/go1.16/test/codegen/mathbits.go:528)	CMPQ	SP, 16(CX)
	0x000d 00013 (/home/laijh/go/src/source-notes/go1.16/test/codegen/mathbits.go:528)	PCDATA	$0, $-2
	0x000d 00013 (/home/laijh/go/src/source-notes/go1.16/test/codegen/mathbits.go:528)	JLS	128
	0x000f 00015 (/home/laijh/go/src/source-notes/go1.16/test/codegen/mathbits.go:528)	PCDATA	$0, $-1
	0x000f 00015 (/home/laijh/go/src/source-notes/go1.16/test/codegen/mathbits.go:528)	SUBQ	$24, SP
	0x0013 00019 (/home/laijh/go/src/source-notes/go1.16/test/codegen/mathbits.go:528)	MOVQ	BP, 16(SP)
	0x0018 00024 (/home/laijh/go/src/source-notes/go1.16/test/codegen/mathbits.go:528)	LEAQ	16(SP), BP
	0x001d 00029 (/home/laijh/go/src/source-notes/go1.16/test/codegen/mathbits.go:528)	FUNCDATA	$0, gclocals·33cdeccccebe80329f1fdbee7f5874cb(SB)
	0x001d 00029 (/home/laijh/go/src/source-notes/go1.16/test/codegen/mathbits.go:528)	FUNCDATA	$1, gclocals·33cdeccccebe80329f1fdbee7f5874cb(SB)
	0x001d 00029 (/home/laijh/go/src/source-notes/go1.16/test/codegen/mathbits.go:528)	XORPS	X0, X0
	0x0020 00032 (/home/laijh/go/src/source-notes/go1.16/test/codegen/mathbits.go:528)	MOVUPS	X0, "".~r2+64(SP)
	0x0025 00037 (/home/laijh/go/src/source-notes/go1.16/test/codegen/mathbits.go:531)	MOVQ	"".a+32(SP), AX
	0x002a 00042 (/home/laijh/go/src/source-notes/go1.16/test/codegen/mathbits.go:531)	MOVQ	"".b+48(SP), CX
	0x002f 00047 (/home/laijh/go/src/source-notes/go1.16/test/codegen/mathbits.go:531)	ADDQ	AX, CX
	0x0032 00050 (/home/laijh/go/src/source-notes/go1.16/test/codegen/mathbits.go:532)	MOVQ	"".a+40(SP), AX
	0x0037 00055 (/home/laijh/go/src/source-notes/go1.16/test/codegen/mathbits.go:532)	MOVQ	"".b+56(SP), DX
	0x003c 00060 (/home/laijh/go/src/source-notes/go1.16/test/codegen/mathbits.go:532)	ADCQ	AX, DX
	0x003f 00063 (/home/laijh/go/src/source-notes/go1.16/test/codegen/mathbits.go:532)	SBBQ	AX, AX
	0x0042 00066 (/home/laijh/go/src/source-notes/go1.16/test/codegen/mathbits.go:532)	NEGQ	AX
	0x0045 00069 (/home/laijh/go/src/source-notes/go1.16/test/codegen/mathbits.go:534)	TESTQ	AX, AX
	0x0048 00072 (/home/laijh/go/src/source-notes/go1.16/test/codegen/mathbits.go:534)	JNE	94
	0x004a 00074 (/home/laijh/go/src/source-notes/go1.16/test/codegen/mathbits.go:537)	MOVQ	CX, "".~r2+64(SP)
	0x004f 00079 (/home/laijh/go/src/source-notes/go1.16/test/codegen/mathbits.go:537)	MOVQ	DX, "".~r2+72(SP)
	0x0054 00084 (/home/laijh/go/src/source-notes/go1.16/test/codegen/mathbits.go:537)	MOVQ	16(SP), BP
	0x0059 00089 (/home/laijh/go/src/source-notes/go1.16/test/codegen/mathbits.go:537)	ADDQ	$24, SP
	0x005d 00093 (/home/laijh/go/src/source-notes/go1.16/test/codegen/mathbits.go:537)	RET
	0x005e 00094 (/home/laijh/go/src/source-notes/go1.16/test/codegen/mathbits.go:535)	LEAQ	type.string(SB), AX
	0x0065 00101 (/home/laijh/go/src/source-notes/go1.16/test/codegen/mathbits.go:535)	MOVQ	AX, (SP)
	0x0069 00105 (/home/laijh/go/src/source-notes/go1.16/test/codegen/mathbits.go:535)	LEAQ	""..stmp_4(SB), AX
	0x0070 00112 (/home/laijh/go/src/source-notes/go1.16/test/codegen/mathbits.go:535)	MOVQ	AX, 8(SP)
	0x0075 00117 (/home/laijh/go/src/source-notes/go1.16/test/codegen/mathbits.go:535)	PCDATA	$1, $0
	0x0075 00117 (/home/laijh/go/src/source-notes/go1.16/test/codegen/mathbits.go:535)	CALL	runtime.gopanic(SB)
	0x007a 00122 (/home/laijh/go/src/source-notes/go1.16/test/codegen/mathbits.go:535)	XCHGL	AX, AX
	0x007b 00123 (/home/laijh/go/src/source-notes/go1.16/test/codegen/mathbits.go:535)	NOP
	0x007b 00123 (/home/laijh/go/src/source-notes/go1.16/test/codegen/mathbits.go:528)	PCDATA	$1, $-1
	0x007b 00123 (/home/laijh/go/src/source-notes/go1.16/test/codegen/mathbits.go:528)	PCDATA	$0, $-2
	0x007b 00123 (/home/laijh/go/src/source-notes/go1.16/test/codegen/mathbits.go:528)	NOP
	0x0080 00128 (/home/laijh/go/src/source-notes/go1.16/test/codegen/mathbits.go:528)	CALL	runtime.morestack_noctxt(SB)
	0x0085 00133 (/home/laijh/go/src/source-notes/go1.16/test/codegen/mathbits.go:528)	PCDATA	$0, $-1
	0x0085 00133 (/home/laijh/go/src/source-notes/go1.16/test/codegen/mathbits.go:528)	JMP	0
	0x0000 64 48 8b 0c 25 00 00 00 00 48 3b 61 10 76 71 48  dH..%....H;a.vqH
	0x0010 83 ec 18 48 89 6c 24 10 48 8d 6c 24 10 0f 57 c0  ...H.l$.H.l$..W.
	0x0020 0f 11 44 24 40 48 8b 44 24 20 48 8b 4c 24 30 48  ..D$@H.D$ H.L$0H
	0x0030 01 c1 48 8b 44 24 28 48 8b 54 24 38 48 11 c2 48  ..H.D$(H.T$8H..H
	0x0040 19 c0 48 f7 d8 48 85 c0 75 14 48 89 4c 24 40 48  ..H..H..u.H.L$@H
	0x0050 89 54 24 48 48 8b 6c 24 10 48 83 c4 18 c3 48 8d  .T$HH.l$.H....H.
	0x0060 05 00 00 00 00 48 89 04 24 48 8d 05 00 00 00 00  .....H..$H......
	0x0070 48 89 44 24 08 e8 00 00 00 00 90 0f 1f 44 00 00  H.D$.........D..
	0x0080 e8 00 00 00 00 e9 76 ff ff ff                    ......v...
	rel 2+0 t=25 type.string<0>+0
	rel 5+4 t=17 TLS+0
	rel 97+4 t=16 type.string<0>+0
	rel 108+4 t=16 ""..stmp_4<0>+0
	rel 118+4 t=8 runtime.gopanic<1>+0
	rel 129+4 t=8 runtime.morestack_noctxt<0>+0
"".Add64MPanicOnOverflowGT<1> STEXT size=138 args=0x30 locals=0x18 funcid=0x0
	0x0000 00000 (/home/laijh/go/src/source-notes/go1.16/test/codegen/mathbits.go:540)	TEXT	"".Add64MPanicOnOverflowGT(SB), ABIInternal, $24-48
	0x0000 00000 (/home/laijh/go/src/source-notes/go1.16/test/codegen/mathbits.go:540)	MOVQ	(TLS), CX
	0x0009 00009 (/home/laijh/go/src/source-notes/go1.16/test/codegen/mathbits.go:540)	CMPQ	SP, 16(CX)
	0x000d 00013 (/home/laijh/go/src/source-notes/go1.16/test/codegen/mathbits.go:540)	PCDATA	$0, $-2
	0x000d 00013 (/home/laijh/go/src/source-notes/go1.16/test/codegen/mathbits.go:540)	JLS	128
	0x000f 00015 (/home/laijh/go/src/source-notes/go1.16/test/codegen/mathbits.go:540)	PCDATA	$0, $-1
	0x000f 00015 (/home/laijh/go/src/source-notes/go1.16/test/codegen/mathbits.go:540)	SUBQ	$24, SP
	0x0013 00019 (/home/laijh/go/src/source-notes/go1.16/test/codegen/mathbits.go:540)	MOVQ	BP, 16(SP)
	0x0018 00024 (/home/laijh/go/src/source-notes/go1.16/test/codegen/mathbits.go:540)	LEAQ	16(SP), BP
	0x001d 00029 (/home/laijh/go/src/source-notes/go1.16/test/codegen/mathbits.go:540)	FUNCDATA	$0, gclocals·33cdeccccebe80329f1fdbee7f5874cb(SB)
	0x001d 00029 (/home/laijh/go/src/source-notes/go1.16/test/codegen/mathbits.go:540)	FUNCDATA	$1, gclocals·33cdeccccebe80329f1fdbee7f5874cb(SB)
	0x001d 00029 (/home/laijh/go/src/source-notes/go1.16/test/codegen/mathbits.go:540)	XORPS	X0, X0
	0x0020 00032 (/home/laijh/go/src/source-notes/go1.16/test/codegen/mathbits.go:540)	MOVUPS	X0, "".~r2+64(SP)
	0x0025 00037 (/home/laijh/go/src/source-notes/go1.16/test/codegen/mathbits.go:543)	MOVQ	"".a+32(SP), AX
	0x002a 00042 (/home/laijh/go/src/source-notes/go1.16/test/codegen/mathbits.go:543)	MOVQ	"".b+48(SP), CX
	0x002f 00047 (/home/laijh/go/src/source-notes/go1.16/test/codegen/mathbits.go:543)	ADDQ	AX, CX
	0x0032 00050 (/home/laijh/go/src/source-notes/go1.16/test/codegen/mathbits.go:544)	MOVQ	"".a+40(SP), AX
	0x0037 00055 (/home/laijh/go/src/source-notes/go1.16/test/codegen/mathbits.go:544)	MOVQ	"".b+56(SP), DX
	0x003c 00060 (/home/laijh/go/src/source-notes/go1.16/test/codegen/mathbits.go:544)	ADCQ	AX, DX
	0x003f 00063 (/home/laijh/go/src/source-notes/go1.16/test/codegen/mathbits.go:544)	SBBQ	AX, AX
	0x0042 00066 (/home/laijh/go/src/source-notes/go1.16/test/codegen/mathbits.go:544)	NEGQ	AX
	0x0045 00069 (/home/laijh/go/src/source-notes/go1.16/test/codegen/mathbits.go:546)	TESTQ	AX, AX
	0x0048 00072 (/home/laijh/go/src/source-notes/go1.16/test/codegen/mathbits.go:546)	JHI	94
	0x004a 00074 (/home/laijh/go/src/source-notes/go1.16/test/codegen/mathbits.go:549)	MOVQ	CX, "".~r2+64(SP)
	0x004f 00079 (/home/laijh/go/src/source-notes/go1.16/test/codegen/mathbits.go:549)	MOVQ	DX, "".~r2+72(SP)
	0x0054 00084 (/home/laijh/go/src/source-notes/go1.16/test/codegen/mathbits.go:549)	MOVQ	16(SP), BP
	0x0059 00089 (/home/laijh/go/src/source-notes/go1.16/test/codegen/mathbits.go:549)	ADDQ	$24, SP
	0x005d 00093 (/home/laijh/go/src/source-notes/go1.16/test/codegen/mathbits.go:549)	RET
	0x005e 00094 (/home/laijh/go/src/source-notes/go1.16/test/codegen/mathbits.go:547)	LEAQ	type.string(SB), AX
	0x0065 00101 (/home/laijh/go/src/source-notes/go1.16/test/codegen/mathbits.go:547)	MOVQ	AX, (SP)
	0x0069 00105 (/home/laijh/go/src/source-notes/go1.16/test/codegen/mathbits.go:547)	LEAQ	""..stmp_5(SB), AX
	0x0070 00112 (/home/laijh/go/src/source-notes/go1.16/test/codegen/mathbits.go:547)	MOVQ	AX, 8(SP)
	0x0075 00117 (/home/laijh/go/src/source-notes/go1.16/test/codegen/mathbits.go:547)	PCDATA	$1, $0
	0x0075 00117 (/home/laijh/go/src/source-notes/go1.16/test/codegen/mathbits.go:547)	CALL	runtime.gopanic(SB)
	0x007a 00122 (/home/laijh/go/src/source-notes/go1.16/test/codegen/mathbits.go:547)	XCHGL	AX, AX
	0x007b 00123 (/home/laijh/go/src/source-notes/go1.16/test/codegen/mathbits.go:547)	NOP
	0x007b 00123 (/home/laijh/go/src/source-notes/go1.16/test/codegen/mathbits.go:540)	PCDATA	$1, $-1
	0x007b 00123 (/home/laijh/go/src/source-notes/go1.16/test/codegen/mathbits.go:540)	PCDATA	$0, $-2
	0x007b 00123 (/home/laijh/go/src/source-notes/go1.16/test/codegen/mathbits.go:540)	NOP
	0x0080 00128 (/home/laijh/go/src/source-notes/go1.16/test/codegen/mathbits.go:540)	CALL	runtime.morestack_noctxt(SB)
	0x0085 00133 (/home/laijh/go/src/source-notes/go1.16/test/codegen/mathbits.go:540)	PCDATA	$0, $-1
	0x0085 00133 (/home/laijh/go/src/source-notes/go1.16/test/codegen/mathbits.go:540)	JMP	0
	0x0000 64 48 8b 0c 25 00 00 00 00 48 3b 61 10 76 71 48  dH..%....H;a.vqH
	0x0010 83 ec 18 48 89 6c 24 10 48 8d 6c 24 10 0f 57 c0  ...H.l$.H.l$..W.
	0x0020 0f 11 44 24 40 48 8b 44 24 20 48 8b 4c 24 30 48  ..D$@H.D$ H.L$0H
	0x0030 01 c1 48 8b 44 24 28 48 8b 54 24 38 48 11 c2 48  ..H.D$(H.T$8H..H
	0x0040 19 c0 48 f7 d8 48 85 c0 77 14 48 89 4c 24 40 48  ..H..H..w.H.L$@H
	0x0050 89 54 24 48 48 8b 6c 24 10 48 83 c4 18 c3 48 8d  .T$HH.l$.H....H.
	0x0060 05 00 00 00 00 48 89 04 24 48 8d 05 00 00 00 00  .....H..$H......
	0x0070 48 89 44 24 08 e8 00 00 00 00 90 0f 1f 44 00 00  H.D$.........D..
	0x0080 e8 00 00 00 00 e9 76 ff ff ff                    ......v...
	rel 2+0 t=25 type.string<0>+0
	rel 5+4 t=17 TLS+0
	rel 97+4 t=16 type.string<0>+0
	rel 108+4 t=16 ""..stmp_5<0>+0
	rel 118+4 t=8 runtime.gopanic<1>+0
	rel 129+4 t=8 runtime.morestack_noctxt<0>+0
"".Sub<1> STEXT nosplit size=37 args=0x28 locals=0x0 funcid=0x0
	0x0000 00000 (/home/laijh/go/src/source-notes/go1.16/test/codegen/mathbits.go:556)	TEXT	"".Sub(SB), NOSPLIT|ABIInternal, $0-40
	0x0000 00000 (/home/laijh/go/src/source-notes/go1.16/test/codegen/mathbits.go:556)	FUNCDATA	$0, gclocals·33cdeccccebe80329f1fdbee7f5874cb(SB)
	0x0000 00000 (/home/laijh/go/src/source-notes/go1.16/test/codegen/mathbits.go:556)	FUNCDATA	$1, gclocals·33cdeccccebe80329f1fdbee7f5874cb(SB)
	0x0000 00000 (/home/laijh/go/src/source-notes/go1.16/test/codegen/mathbits.go:560)	MOVQ	"".ci+24(SP), AX
	0x0005 00005 (/home/laijh/go/src/source-notes/go1.16/test/codegen/mathbits.go:560)	NEGL	AX
	0x0007 00007 (/home/laijh/go/src/source-notes/go1.16/test/codegen/mathbits.go:560)	MOVQ	"".x+8(SP), AX
	0x000c 00012 (/home/laijh/go/src/source-notes/go1.16/test/codegen/mathbits.go:560)	MOVQ	"".y+16(SP), CX
	0x0011 00017 (/home/laijh/go/src/source-notes/go1.16/test/codegen/mathbits.go:560)	SBBQ	CX, AX
	0x0014 00020 (/home/laijh/go/src/source-notes/go1.16/test/codegen/mathbits.go:560)	MOVQ	AX, "".r+32(SP)
	0x0019 00025 (/home/laijh/go/src/source-notes/go1.16/test/codegen/mathbits.go:560)	SBBQ	AX, AX
	0x001c 00028 (/home/laijh/go/src/source-notes/go1.16/test/codegen/mathbits.go:560)	NEGQ	AX
	0x001f 00031 (/home/laijh/go/src/source-notes/go1.16/test/codegen/mathbits.go:560)	MOVQ	AX, "".co+40(SP)
	0x0024 00036 (/home/laijh/go/src/source-notes/go1.16/test/codegen/mathbits.go:560)	RET
	0x0000 48 8b 44 24 18 f7 d8 48 8b 44 24 08 48 8b 4c 24  H.D$...H.D$.H.L$
	0x0010 10 48 19 c8 48 89 44 24 20 48 19 c0 48 f7 d8 48  .H..H.D$ H..H..H
	0x0020 89 44 24 28 c3                                   .D$(.
"".SubC<1> STEXT nosplit size=33 args=0x20 locals=0x0 funcid=0x0
	0x0000 00000 (/home/laijh/go/src/source-notes/go1.16/test/codegen/mathbits.go:563)	TEXT	"".SubC(SB), NOSPLIT|ABIInternal, $0-32
	0x0000 00000 (/home/laijh/go/src/source-notes/go1.16/test/codegen/mathbits.go:563)	FUNCDATA	$0, gclocals·33cdeccccebe80329f1fdbee7f5874cb(SB)
	0x0000 00000 (/home/laijh/go/src/source-notes/go1.16/test/codegen/mathbits.go:563)	FUNCDATA	$1, gclocals·33cdeccccebe80329f1fdbee7f5874cb(SB)
	0x0000 00000 (/home/laijh/go/src/source-notes/go1.16/test/codegen/mathbits.go:567)	MOVQ	"".ci+16(SP), AX
	0x0005 00005 (/home/laijh/go/src/source-notes/go1.16/test/codegen/mathbits.go:567)	NEGL	AX
	0x0007 00007 (/home/laijh/go/src/source-notes/go1.16/test/codegen/mathbits.go:567)	MOVQ	"".x+8(SP), AX
	0x000c 00012 (/home/laijh/go/src/source-notes/go1.16/test/codegen/mathbits.go:567)	SBBQ	$7, AX
	0x0010 00016 (/home/laijh/go/src/source-notes/go1.16/test/codegen/mathbits.go:567)	MOVQ	AX, "".r+24(SP)
	0x0015 00021 (/home/laijh/go/src/source-notes/go1.16/test/codegen/mathbits.go:567)	SBBQ	AX, AX
	0x0018 00024 (/home/laijh/go/src/source-notes/go1.16/test/codegen/mathbits.go:567)	NEGQ	AX
	0x001b 00027 (/home/laijh/go/src/source-notes/go1.16/test/codegen/mathbits.go:567)	MOVQ	AX, "".co+32(SP)
	0x0020 00032 (/home/laijh/go/src/source-notes/go1.16/test/codegen/mathbits.go:567)	RET
	0x0000 48 8b 44 24 10 f7 d8 48 8b 44 24 08 48 83 d8 07  H.D$...H.D$.H...
	0x0010 48 89 44 24 18 48 19 c0 48 f7 d8 48 89 44 24 20  H.D$.H..H..H.D$ 
	0x0020 c3                                               .
"".SubZ<1> STEXT nosplit size=30 args=0x20 locals=0x0 funcid=0x0
	0x0000 00000 (/home/laijh/go/src/source-notes/go1.16/test/codegen/mathbits.go:570)	TEXT	"".SubZ(SB), NOSPLIT|ABIInternal, $0-32
	0x0000 00000 (/home/laijh/go/src/source-notes/go1.16/test/codegen/mathbits.go:570)	FUNCDATA	$0, gclocals·33cdeccccebe80329f1fdbee7f5874cb(SB)
	0x0000 00000 (/home/laijh/go/src/source-notes/go1.16/test/codegen/mathbits.go:570)	FUNCDATA	$1, gclocals·33cdeccccebe80329f1fdbee7f5874cb(SB)
	0x0000 00000 (/home/laijh/go/src/source-notes/go1.16/test/codegen/mathbits.go:574)	MOVQ	"".x+8(SP), AX
	0x0005 00005 (/home/laijh/go/src/source-notes/go1.16/test/codegen/mathbits.go:574)	MOVQ	"".y+16(SP), CX
	0x000a 00010 (/home/laijh/go/src/source-notes/go1.16/test/codegen/mathbits.go:574)	SUBQ	CX, AX
	0x000d 00013 (/home/laijh/go/src/source-notes/go1.16/test/codegen/mathbits.go:574)	MOVQ	AX, "".r+24(SP)
	0x0012 00018 (/home/laijh/go/src/source-notes/go1.16/test/codegen/mathbits.go:574)	SBBQ	AX, AX
	0x0015 00021 (/home/laijh/go/src/source-notes/go1.16/test/codegen/mathbits.go:574)	NEGQ	AX
	0x0018 00024 (/home/laijh/go/src/source-notes/go1.16/test/codegen/mathbits.go:574)	MOVQ	AX, "".co+32(SP)
	0x001d 00029 (/home/laijh/go/src/source-notes/go1.16/test/codegen/mathbits.go:574)	RET
	0x0000 48 8b 44 24 08 48 8b 4c 24 10 48 29 c8 48 89 44  H.D$.H.L$.H).H.D
	0x0010 24 18 48 19 c0 48 f7 d8 48 89 44 24 20 c3        $.H..H..H.D$ .
"".SubR<1> STEXT nosplit size=26 args=0x20 locals=0x0 funcid=0x0
	0x0000 00000 (/home/laijh/go/src/source-notes/go1.16/test/codegen/mathbits.go:577)	TEXT	"".SubR(SB), NOSPLIT|ABIInternal, $0-32
	0x0000 00000 (/home/laijh/go/src/source-notes/go1.16/test/codegen/mathbits.go:577)	FUNCDATA	$0, gclocals·33cdeccccebe80329f1fdbee7f5874cb(SB)
	0x0000 00000 (/home/laijh/go/src/source-notes/go1.16/test/codegen/mathbits.go:577)	FUNCDATA	$1, gclocals·33cdeccccebe80329f1fdbee7f5874cb(SB)
	0x0000 00000 (/home/laijh/go/src/source-notes/go1.16/test/codegen/mathbits.go:581)	MOVQ	"".ci+24(SP), AX
	0x0005 00005 (/home/laijh/go/src/source-notes/go1.16/test/codegen/mathbits.go:581)	NEGL	AX
	0x0007 00007 (/home/laijh/go/src/source-notes/go1.16/test/codegen/mathbits.go:581)	MOVQ	"".x+8(SP), AX
	0x000c 00012 (/home/laijh/go/src/source-notes/go1.16/test/codegen/mathbits.go:581)	MOVQ	"".y+16(SP), CX
	0x0011 00017 (/home/laijh/go/src/source-notes/go1.16/test/codegen/mathbits.go:581)	SBBQ	CX, AX
	0x0014 00020 (/home/laijh/go/src/source-notes/go1.16/test/codegen/mathbits.go:582)	MOVQ	AX, "".~r3+32(SP)
	0x0019 00025 (/home/laijh/go/src/source-notes/go1.16/test/codegen/mathbits.go:582)	RET
	0x0000 48 8b 44 24 18 f7 d8 48 8b 44 24 08 48 8b 4c 24  H.D$...H.D$.H.L$
	0x0010 10 48 19 c8 48 89 44 24 20 c3                    .H..H.D$ .
"".SubM<1> STEXT nosplit size=58 args=0x18 locals=0x0 funcid=0x0
	0x0000 00000 (/home/laijh/go/src/source-notes/go1.16/test/codegen/mathbits.go:584)	TEXT	"".SubM(SB), NOSPLIT|ABIInternal, $0-24
	0x0000 00000 (/home/laijh/go/src/source-notes/go1.16/test/codegen/mathbits.go:584)	FUNCDATA	$0, gclocals·9aa48eca674789341e2d6be6614c399c(SB)
	0x0000 00000 (/home/laijh/go/src/source-notes/go1.16/test/codegen/mathbits.go:584)	FUNCDATA	$1, gclocals·69c1753bd5f81501d95132d08af04464(SB)
	0x0000 00000 (/home/laijh/go/src/source-notes/go1.16/test/codegen/mathbits.go:586)	MOVQ	"".p+8(SP), AX
	0x0005 00005 (/home/laijh/go/src/source-notes/go1.16/test/codegen/mathbits.go:586)	MOVQ	(AX), CX
	0x0008 00008 (/home/laijh/go/src/source-notes/go1.16/test/codegen/mathbits.go:586)	MOVQ	"".q+16(SP), DX
	0x000d 00013 (/home/laijh/go/src/source-notes/go1.16/test/codegen/mathbits.go:586)	MOVQ	(DX), BX
	0x0010 00016 (/home/laijh/go/src/source-notes/go1.16/test/codegen/mathbits.go:586)	SUBQ	BX, CX
	0x0013 00019 (/home/laijh/go/src/source-notes/go1.16/test/codegen/mathbits.go:586)	MOVQ	"".r+24(SP), BX
	0x0018 00024 (/home/laijh/go/src/source-notes/go1.16/test/codegen/mathbits.go:586)	MOVQ	CX, (BX)
	0x001b 00027 (/home/laijh/go/src/source-notes/go1.16/test/codegen/mathbits.go:590)	MOVQ	8(AX), CX
	0x001f 00031 (/home/laijh/go/src/source-notes/go1.16/test/codegen/mathbits.go:590)	MOVQ	8(DX), SI
	0x0023 00035 (/home/laijh/go/src/source-notes/go1.16/test/codegen/mathbits.go:590)	SBBQ	SI, CX
	0x0026 00038 (/home/laijh/go/src/source-notes/go1.16/test/codegen/mathbits.go:590)	MOVQ	CX, 8(BX)
	0x002a 00042 (/home/laijh/go/src/source-notes/go1.16/test/codegen/mathbits.go:591)	MOVQ	16(AX), AX
	0x002e 00046 (/home/laijh/go/src/source-notes/go1.16/test/codegen/mathbits.go:591)	MOVQ	16(DX), CX
	0x0032 00050 (/home/laijh/go/src/source-notes/go1.16/test/codegen/mathbits.go:591)	SBBQ	CX, AX
	0x0035 00053 (/home/laijh/go/src/source-notes/go1.16/test/codegen/mathbits.go:591)	MOVQ	AX, 16(BX)
	0x0039 00057 (/home/laijh/go/src/source-notes/go1.16/test/codegen/mathbits.go:592)	RET
	0x0000 48 8b 44 24 08 48 8b 08 48 8b 54 24 10 48 8b 1a  H.D$.H..H.T$.H..
	0x0010 48 29 d9 48 8b 5c 24 18 48 89 0b 48 8b 48 08 48  H).H.\$.H..H.H.H
	0x0020 8b 72 08 48 19 f1 48 89 4b 08 48 8b 40 10 48 8b  .r.H..H.K.H.@.H.
	0x0030 4a 10 48 19 c8 48 89 43 10 c3                    J.H..H.C..
"".Sub64<1> STEXT nosplit size=37 args=0x28 locals=0x0 funcid=0x0
	0x0000 00000 (/home/laijh/go/src/source-notes/go1.16/test/codegen/mathbits.go:594)	TEXT	"".Sub64(SB), NOSPLIT|ABIInternal, $0-40
	0x0000 00000 (/home/laijh/go/src/source-notes/go1.16/test/codegen/mathbits.go:594)	FUNCDATA	$0, gclocals·33cdeccccebe80329f1fdbee7f5874cb(SB)
	0x0000 00000 (/home/laijh/go/src/source-notes/go1.16/test/codegen/mathbits.go:594)	FUNCDATA	$1, gclocals·33cdeccccebe80329f1fdbee7f5874cb(SB)
	0x0000 00000 (/home/laijh/go/src/source-notes/go1.16/test/codegen/mathbits.go:598)	MOVQ	"".ci+24(SP), AX
	0x0005 00005 (/home/laijh/go/src/source-notes/go1.16/test/codegen/mathbits.go:598)	NEGL	AX
	0x0007 00007 (/home/laijh/go/src/source-notes/go1.16/test/codegen/mathbits.go:598)	MOVQ	"".x+8(SP), AX
	0x000c 00012 (/home/laijh/go/src/source-notes/go1.16/test/codegen/mathbits.go:598)	MOVQ	"".y+16(SP), CX
	0x0011 00017 (/home/laijh/go/src/source-notes/go1.16/test/codegen/mathbits.go:598)	SBBQ	CX, AX
	0x0014 00020 (/home/laijh/go/src/source-notes/go1.16/test/codegen/mathbits.go:598)	MOVQ	AX, "".r+32(SP)
	0x0019 00025 (/home/laijh/go/src/source-notes/go1.16/test/codegen/mathbits.go:598)	SBBQ	AX, AX
	0x001c 00028 (/home/laijh/go/src/source-notes/go1.16/test/codegen/mathbits.go:598)	NEGQ	AX
	0x001f 00031 (/home/laijh/go/src/source-notes/go1.16/test/codegen/mathbits.go:598)	MOVQ	AX, "".co+40(SP)
	0x0024 00036 (/home/laijh/go/src/source-notes/go1.16/test/codegen/mathbits.go:598)	RET
	0x0000 48 8b 44 24 18 f7 d8 48 8b 44 24 08 48 8b 4c 24  H.D$...H.D$.H.L$
	0x0010 10 48 19 c8 48 89 44 24 20 48 19 c0 48 f7 d8 48  .H..H.D$ H..H..H
	0x0020 89 44 24 28 c3                                   .D$(.
"".Sub64C<1> STEXT nosplit size=33 args=0x20 locals=0x0 funcid=0x0
	0x0000 00000 (/home/laijh/go/src/source-notes/go1.16/test/codegen/mathbits.go:601)	TEXT	"".Sub64C(SB), NOSPLIT|ABIInternal, $0-32
	0x0000 00000 (/home/laijh/go/src/source-notes/go1.16/test/codegen/mathbits.go:601)	FUNCDATA	$0, gclocals·33cdeccccebe80329f1fdbee7f5874cb(SB)
	0x0000 00000 (/home/laijh/go/src/source-notes/go1.16/test/codegen/mathbits.go:601)	FUNCDATA	$1, gclocals·33cdeccccebe80329f1fdbee7f5874cb(SB)
	0x0000 00000 (/home/laijh/go/src/source-notes/go1.16/test/codegen/mathbits.go:605)	MOVQ	"".ci+16(SP), AX
	0x0005 00005 (/home/laijh/go/src/source-notes/go1.16/test/codegen/mathbits.go:605)	NEGL	AX
	0x0007 00007 (/home/laijh/go/src/source-notes/go1.16/test/codegen/mathbits.go:605)	MOVQ	"".x+8(SP), AX
	0x000c 00012 (/home/laijh/go/src/source-notes/go1.16/test/codegen/mathbits.go:605)	SBBQ	$7, AX
	0x0010 00016 (/home/laijh/go/src/source-notes/go1.16/test/codegen/mathbits.go:605)	MOVQ	AX, "".r+24(SP)
	0x0015 00021 (/home/laijh/go/src/source-notes/go1.16/test/codegen/mathbits.go:605)	SBBQ	AX, AX
	0x0018 00024 (/home/laijh/go/src/source-notes/go1.16/test/codegen/mathbits.go:605)	NEGQ	AX
	0x001b 00027 (/home/laijh/go/src/source-notes/go1.16/test/codegen/mathbits.go:605)	MOVQ	AX, "".co+32(SP)
	0x0020 00032 (/home/laijh/go/src/source-notes/go1.16/test/codegen/mathbits.go:605)	RET
	0x0000 48 8b 44 24 10 f7 d8 48 8b 44 24 08 48 83 d8 07  H.D$...H.D$.H...
	0x0010 48 89 44 24 18 48 19 c0 48 f7 d8 48 89 44 24 20  H.D$.H..H..H.D$ 
	0x0020 c3                                               .
"".Sub64Z<1> STEXT nosplit size=30 args=0x20 locals=0x0 funcid=0x0
	0x0000 00000 (/home/laijh/go/src/source-notes/go1.16/test/codegen/mathbits.go:608)	TEXT	"".Sub64Z(SB), NOSPLIT|ABIInternal, $0-32
	0x0000 00000 (/home/laijh/go/src/source-notes/go1.16/test/codegen/mathbits.go:608)	FUNCDATA	$0, gclocals·33cdeccccebe80329f1fdbee7f5874cb(SB)
	0x0000 00000 (/home/laijh/go/src/source-notes/go1.16/test/codegen/mathbits.go:608)	FUNCDATA	$1, gclocals·33cdeccccebe80329f1fdbee7f5874cb(SB)
	0x0000 00000 (/home/laijh/go/src/source-notes/go1.16/test/codegen/mathbits.go:612)	MOVQ	"".x+8(SP), AX
	0x0005 00005 (/home/laijh/go/src/source-notes/go1.16/test/codegen/mathbits.go:612)	MOVQ	"".y+16(SP), CX
	0x000a 00010 (/home/laijh/go/src/source-notes/go1.16/test/codegen/mathbits.go:612)	SUBQ	CX, AX
	0x000d 00013 (/home/laijh/go/src/source-notes/go1.16/test/codegen/mathbits.go:612)	MOVQ	AX, "".r+24(SP)
	0x0012 00018 (/home/laijh/go/src/source-notes/go1.16/test/codegen/mathbits.go:612)	SBBQ	AX, AX
	0x0015 00021 (/home/laijh/go/src/source-notes/go1.16/test/codegen/mathbits.go:612)	NEGQ	AX
	0x0018 00024 (/home/laijh/go/src/source-notes/go1.16/test/codegen/mathbits.go:612)	MOVQ	AX, "".co+32(SP)
	0x001d 00029 (/home/laijh/go/src/source-notes/go1.16/test/codegen/mathbits.go:612)	RET
	0x0000 48 8b 44 24 08 48 8b 4c 24 10 48 29 c8 48 89 44  H.D$.H.L$.H).H.D
	0x0010 24 18 48 19 c0 48 f7 d8 48 89 44 24 20 c3        $.H..H..H.D$ .
"".Sub64R<1> STEXT nosplit size=26 args=0x20 locals=0x0 funcid=0x0
	0x0000 00000 (/home/laijh/go/src/source-notes/go1.16/test/codegen/mathbits.go:615)	TEXT	"".Sub64R(SB), NOSPLIT|ABIInternal, $0-32
	0x0000 00000 (/home/laijh/go/src/source-notes/go1.16/test/codegen/mathbits.go:615)	FUNCDATA	$0, gclocals·33cdeccccebe80329f1fdbee7f5874cb(SB)
	0x0000 00000 (/home/laijh/go/src/source-notes/go1.16/test/codegen/mathbits.go:615)	FUNCDATA	$1, gclocals·33cdeccccebe80329f1fdbee7f5874cb(SB)
	0x0000 00000 (/home/laijh/go/src/source-notes/go1.16/test/codegen/mathbits.go:619)	MOVQ	"".ci+24(SP), AX
	0x0005 00005 (/home/laijh/go/src/source-notes/go1.16/test/codegen/mathbits.go:619)	NEGL	AX
	0x0007 00007 (/home/laijh/go/src/source-notes/go1.16/test/codegen/mathbits.go:619)	MOVQ	"".x+8(SP), AX
	0x000c 00012 (/home/laijh/go/src/source-notes/go1.16/test/codegen/mathbits.go:619)	MOVQ	"".y+16(SP), CX
	0x0011 00017 (/home/laijh/go/src/source-notes/go1.16/test/codegen/mathbits.go:619)	SBBQ	CX, AX
	0x0014 00020 (/home/laijh/go/src/source-notes/go1.16/test/codegen/mathbits.go:620)	MOVQ	AX, "".~r3+32(SP)
	0x0019 00025 (/home/laijh/go/src/source-notes/go1.16/test/codegen/mathbits.go:620)	RET
	0x0000 48 8b 44 24 18 f7 d8 48 8b 44 24 08 48 8b 4c 24  H.D$...H.D$.H.L$
	0x0010 10 48 19 c8 48 89 44 24 20 c3                    .H..H.D$ .
"".Sub64M<1> STEXT nosplit size=58 args=0x18 locals=0x0 funcid=0x0
	0x0000 00000 (/home/laijh/go/src/source-notes/go1.16/test/codegen/mathbits.go:622)	TEXT	"".Sub64M(SB), NOSPLIT|ABIInternal, $0-24
	0x0000 00000 (/home/laijh/go/src/source-notes/go1.16/test/codegen/mathbits.go:622)	FUNCDATA	$0, gclocals·9aa48eca674789341e2d6be6614c399c(SB)
	0x0000 00000 (/home/laijh/go/src/source-notes/go1.16/test/codegen/mathbits.go:622)	FUNCDATA	$1, gclocals·69c1753bd5f81501d95132d08af04464(SB)
	0x0000 00000 (/home/laijh/go/src/source-notes/go1.16/test/codegen/mathbits.go:624)	MOVQ	"".p+8(SP), AX
	0x0005 00005 (/home/laijh/go/src/source-notes/go1.16/test/codegen/mathbits.go:624)	MOVQ	(AX), CX
	0x0008 00008 (/home/laijh/go/src/source-notes/go1.16/test/codegen/mathbits.go:624)	MOVQ	"".q+16(SP), DX
	0x000d 00013 (/home/laijh/go/src/source-notes/go1.16/test/codegen/mathbits.go:624)	MOVQ	(DX), BX
	0x0010 00016 (/home/laijh/go/src/source-notes/go1.16/test/codegen/mathbits.go:624)	SUBQ	BX, CX
	0x0013 00019 (/home/laijh/go/src/source-notes/go1.16/test/codegen/mathbits.go:624)	MOVQ	"".r+24(SP), BX
	0x0018 00024 (/home/laijh/go/src/source-notes/go1.16/test/codegen/mathbits.go:624)	MOVQ	CX, (BX)
	0x001b 00027 (/home/laijh/go/src/source-notes/go1.16/test/codegen/mathbits.go:628)	MOVQ	8(AX), CX
	0x001f 00031 (/home/laijh/go/src/source-notes/go1.16/test/codegen/mathbits.go:628)	MOVQ	8(DX), SI
	0x0023 00035 (/home/laijh/go/src/source-notes/go1.16/test/codegen/mathbits.go:628)	SBBQ	SI, CX
	0x0026 00038 (/home/laijh/go/src/source-notes/go1.16/test/codegen/mathbits.go:628)	MOVQ	CX, 8(BX)
	0x002a 00042 (/home/laijh/go/src/source-notes/go1.16/test/codegen/mathbits.go:629)	MOVQ	16(AX), AX
	0x002e 00046 (/home/laijh/go/src/source-notes/go1.16/test/codegen/mathbits.go:629)	MOVQ	16(DX), CX
	0x0032 00050 (/home/laijh/go/src/source-notes/go1.16/test/codegen/mathbits.go:629)	SBBQ	CX, AX
	0x0035 00053 (/home/laijh/go/src/source-notes/go1.16/test/codegen/mathbits.go:629)	MOVQ	AX, 16(BX)
	0x0039 00057 (/home/laijh/go/src/source-notes/go1.16/test/codegen/mathbits.go:630)	RET
	0x0000 48 8b 44 24 08 48 8b 08 48 8b 54 24 10 48 8b 1a  H.D$.H..H.T$.H..
	0x0010 48 29 d9 48 8b 5c 24 18 48 89 0b 48 8b 48 08 48  H).H.\$.H..H.H.H
	0x0020 8b 72 08 48 19 f1 48 89 4b 08 48 8b 40 10 48 8b  .r.H..H.K.H.@.H.
	0x0030 4a 10 48 19 c8 48 89 43 10 c3                    J.H..H.C..
"".Sub64PanicOnOverflowEQ<1> STEXT size=109 args=0x18 locals=0x18 funcid=0x0
	0x0000 00000 (/home/laijh/go/src/source-notes/go1.16/test/codegen/mathbits.go:632)	TEXT	"".Sub64PanicOnOverflowEQ(SB), ABIInternal, $24-24
	0x0000 00000 (/home/laijh/go/src/source-notes/go1.16/test/codegen/mathbits.go:632)	MOVQ	(TLS), CX
	0x0009 00009 (/home/laijh/go/src/source-notes/go1.16/test/codegen/mathbits.go:632)	CMPQ	SP, 16(CX)
	0x000d 00013 (/home/laijh/go/src/source-notes/go1.16/test/codegen/mathbits.go:632)	PCDATA	$0, $-2
	0x000d 00013 (/home/laijh/go/src/source-notes/go1.16/test/codegen/mathbits.go:632)	JLS	102
	0x000f 00015 (/home/laijh/go/src/source-notes/go1.16/test/codegen/mathbits.go:632)	PCDATA	$0, $-1
	0x000f 00015 (/home/laijh/go/src/source-notes/go1.16/test/codegen/mathbits.go:632)	SUBQ	$24, SP
	0x0013 00019 (/home/laijh/go/src/source-notes/go1.16/test/codegen/mathbits.go:632)	MOVQ	BP, 16(SP)
	0x0018 00024 (/home/laijh/go/src/source-notes/go1.16/test/codegen/mathbits.go:632)	LEAQ	16(SP), BP
	0x001d 00029 (/home/laijh/go/src/source-notes/go1.16/test/codegen/mathbits.go:632)	FUNCDATA	$0, gclocals·33cdeccccebe80329f1fdbee7f5874cb(SB)
	0x001d 00029 (/home/laijh/go/src/source-notes/go1.16/test/codegen/mathbits.go:632)	FUNCDATA	$1, gclocals·33cdeccccebe80329f1fdbee7f5874cb(SB)
	0x001d 00029 (/home/laijh/go/src/source-notes/go1.16/test/codegen/mathbits.go:633)	MOVQ	"".a+32(SP), AX
	0x0022 00034 (/home/laijh/go/src/source-notes/go1.16/test/codegen/mathbits.go:633)	MOVQ	"".b+40(SP), CX
	0x0027 00039 (/home/laijh/go/src/source-notes/go1.16/test/codegen/mathbits.go:633)	SUBQ	CX, AX
	0x002a 00042 (/home/laijh/go/src/source-notes/go1.16/test/codegen/mathbits.go:633)	SBBQ	CX, CX
	0x002d 00045 (/home/laijh/go/src/source-notes/go1.16/test/codegen/mathbits.go:633)	NEGQ	CX
	0x0030 00048 (/home/laijh/go/src/source-notes/go1.16/test/codegen/mathbits.go:635)	CMPQ	CX, $1
	0x0034 00052 (/home/laijh/go/src/source-notes/go1.16/test/codegen/mathbits.go:635)	JEQ	69
	0x0036 00054 (/home/laijh/go/src/source-notes/go1.16/test/codegen/mathbits.go:638)	MOVQ	AX, "".~r2+48(SP)
	0x003b 00059 (/home/laijh/go/src/source-notes/go1.16/test/codegen/mathbits.go:638)	MOVQ	16(SP), BP
	0x0040 00064 (/home/laijh/go/src/source-notes/go1.16/test/codegen/mathbits.go:638)	ADDQ	$24, SP
	0x0044 00068 (/home/laijh/go/src/source-notes/go1.16/test/codegen/mathbits.go:638)	RET
	0x0045 00069 (/home/laijh/go/src/source-notes/go1.16/test/codegen/mathbits.go:636)	LEAQ	type.string(SB), AX
	0x004c 00076 (/home/laijh/go/src/source-notes/go1.16/test/codegen/mathbits.go:636)	MOVQ	AX, (SP)
	0x0050 00080 (/home/laijh/go/src/source-notes/go1.16/test/codegen/mathbits.go:636)	LEAQ	""..stmp_6(SB), AX
	0x0057 00087 (/home/laijh/go/src/source-notes/go1.16/test/codegen/mathbits.go:636)	MOVQ	AX, 8(SP)
	0x005c 00092 (/home/laijh/go/src/source-notes/go1.16/test/codegen/mathbits.go:636)	PCDATA	$1, $0
	0x005c 00092 (/home/laijh/go/src/source-notes/go1.16/test/codegen/mathbits.go:636)	NOP
	0x0060 00096 (/home/laijh/go/src/source-notes/go1.16/test/codegen/mathbits.go:636)	CALL	runtime.gopanic(SB)
	0x0065 00101 (/home/laijh/go/src/source-notes/go1.16/test/codegen/mathbits.go:636)	XCHGL	AX, AX
	0x0066 00102 (/home/laijh/go/src/source-notes/go1.16/test/codegen/mathbits.go:636)	NOP
	0x0066 00102 (/home/laijh/go/src/source-notes/go1.16/test/codegen/mathbits.go:632)	PCDATA	$1, $-1
	0x0066 00102 (/home/laijh/go/src/source-notes/go1.16/test/codegen/mathbits.go:632)	PCDATA	$0, $-2
	0x0066 00102 (/home/laijh/go/src/source-notes/go1.16/test/codegen/mathbits.go:632)	CALL	runtime.morestack_noctxt(SB)
	0x006b 00107 (/home/laijh/go/src/source-notes/go1.16/test/codegen/mathbits.go:632)	PCDATA	$0, $-1
	0x006b 00107 (/home/laijh/go/src/source-notes/go1.16/test/codegen/mathbits.go:632)	JMP	0
	0x0000 64 48 8b 0c 25 00 00 00 00 48 3b 61 10 76 57 48  dH..%....H;a.vWH
	0x0010 83 ec 18 48 89 6c 24 10 48 8d 6c 24 10 48 8b 44  ...H.l$.H.l$.H.D
	0x0020 24 20 48 8b 4c 24 28 48 29 c8 48 19 c9 48 f7 d9  $ H.L$(H).H..H..
	0x0030 48 83 f9 01 74 0f 48 89 44 24 30 48 8b 6c 24 10  H...t.H.D$0H.l$.
	0x0040 48 83 c4 18 c3 48 8d 05 00 00 00 00 48 89 04 24  H....H......H..$
	0x0050 48 8d 05 00 00 00 00 48 89 44 24 08 0f 1f 40 00  H......H.D$...@.
	0x0060 e8 00 00 00 00 90 e8 00 00 00 00 eb 93           .............
	rel 2+0 t=25 type.string<0>+0
	rel 5+4 t=17 TLS+0
	rel 72+4 t=16 type.string<0>+0
	rel 83+4 t=16 ""..stmp_6<0>+0
	rel 97+4 t=8 runtime.gopanic<1>+0
	rel 103+4 t=8 runtime.morestack_noctxt<0>+0
"".Sub64PanicOnOverflowNE<1> STEXT size=109 args=0x18 locals=0x18 funcid=0x0
	0x0000 00000 (/home/laijh/go/src/source-notes/go1.16/test/codegen/mathbits.go:641)	TEXT	"".Sub64PanicOnOverflowNE(SB), ABIInternal, $24-24
	0x0000 00000 (/home/laijh/go/src/source-notes/go1.16/test/codegen/mathbits.go:641)	MOVQ	(TLS), CX
	0x0009 00009 (/home/laijh/go/src/source-notes/go1.16/test/codegen/mathbits.go:641)	CMPQ	SP, 16(CX)
	0x000d 00013 (/home/laijh/go/src/source-notes/go1.16/test/codegen/mathbits.go:641)	PCDATA	$0, $-2
	0x000d 00013 (/home/laijh/go/src/source-notes/go1.16/test/codegen/mathbits.go:641)	JLS	102
	0x000f 00015 (/home/laijh/go/src/source-notes/go1.16/test/codegen/mathbits.go:641)	PCDATA	$0, $-1
	0x000f 00015 (/home/laijh/go/src/source-notes/go1.16/test/codegen/mathbits.go:641)	SUBQ	$24, SP
	0x0013 00019 (/home/laijh/go/src/source-notes/go1.16/test/codegen/mathbits.go:641)	MOVQ	BP, 16(SP)
	0x0018 00024 (/home/laijh/go/src/source-notes/go1.16/test/codegen/mathbits.go:641)	LEAQ	16(SP), BP
	0x001d 00029 (/home/laijh/go/src/source-notes/go1.16/test/codegen/mathbits.go:641)	FUNCDATA	$0, gclocals·33cdeccccebe80329f1fdbee7f5874cb(SB)
	0x001d 00029 (/home/laijh/go/src/source-notes/go1.16/test/codegen/mathbits.go:641)	FUNCDATA	$1, gclocals·33cdeccccebe80329f1fdbee7f5874cb(SB)
	0x001d 00029 (/home/laijh/go/src/source-notes/go1.16/test/codegen/mathbits.go:642)	MOVQ	"".a+32(SP), AX
	0x0022 00034 (/home/laijh/go/src/source-notes/go1.16/test/codegen/mathbits.go:642)	MOVQ	"".b+40(SP), CX
	0x0027 00039 (/home/laijh/go/src/source-notes/go1.16/test/codegen/mathbits.go:642)	SUBQ	CX, AX
	0x002a 00042 (/home/laijh/go/src/source-notes/go1.16/test/codegen/mathbits.go:642)	SBBQ	CX, CX
	0x002d 00045 (/home/laijh/go/src/source-notes/go1.16/test/codegen/mathbits.go:642)	NEGQ	CX
	0x0030 00048 (/home/laijh/go/src/source-notes/go1.16/test/codegen/mathbits.go:644)	TESTQ	CX, CX
	0x0033 00051 (/home/laijh/go/src/source-notes/go1.16/test/codegen/mathbits.go:644)	JNE	68
	0x0035 00053 (/home/laijh/go/src/source-notes/go1.16/test/codegen/mathbits.go:647)	MOVQ	AX, "".~r2+48(SP)
	0x003a 00058 (/home/laijh/go/src/source-notes/go1.16/test/codegen/mathbits.go:647)	MOVQ	16(SP), BP
	0x003f 00063 (/home/laijh/go/src/source-notes/go1.16/test/codegen/mathbits.go:647)	ADDQ	$24, SP
	0x0043 00067 (/home/laijh/go/src/source-notes/go1.16/test/codegen/mathbits.go:647)	RET
	0x0044 00068 (/home/laijh/go/src/source-notes/go1.16/test/codegen/mathbits.go:645)	LEAQ	type.string(SB), AX
	0x004b 00075 (/home/laijh/go/src/source-notes/go1.16/test/codegen/mathbits.go:645)	MOVQ	AX, (SP)
	0x004f 00079 (/home/laijh/go/src/source-notes/go1.16/test/codegen/mathbits.go:645)	LEAQ	""..stmp_7(SB), AX
	0x0056 00086 (/home/laijh/go/src/source-notes/go1.16/test/codegen/mathbits.go:645)	MOVQ	AX, 8(SP)
	0x005b 00091 (/home/laijh/go/src/source-notes/go1.16/test/codegen/mathbits.go:645)	PCDATA	$1, $0
	0x005b 00091 (/home/laijh/go/src/source-notes/go1.16/test/codegen/mathbits.go:645)	NOP
	0x0060 00096 (/home/laijh/go/src/source-notes/go1.16/test/codegen/mathbits.go:645)	CALL	runtime.gopanic(SB)
	0x0065 00101 (/home/laijh/go/src/source-notes/go1.16/test/codegen/mathbits.go:645)	XCHGL	AX, AX
	0x0066 00102 (/home/laijh/go/src/source-notes/go1.16/test/codegen/mathbits.go:645)	NOP
	0x0066 00102 (/home/laijh/go/src/source-notes/go1.16/test/codegen/mathbits.go:641)	PCDATA	$1, $-1
	0x0066 00102 (/home/laijh/go/src/source-notes/go1.16/test/codegen/mathbits.go:641)	PCDATA	$0, $-2
	0x0066 00102 (/home/laijh/go/src/source-notes/go1.16/test/codegen/mathbits.go:641)	CALL	runtime.morestack_noctxt(SB)
	0x006b 00107 (/home/laijh/go/src/source-notes/go1.16/test/codegen/mathbits.go:641)	PCDATA	$0, $-1
	0x006b 00107 (/home/laijh/go/src/source-notes/go1.16/test/codegen/mathbits.go:641)	JMP	0
	0x0000 64 48 8b 0c 25 00 00 00 00 48 3b 61 10 76 57 48  dH..%....H;a.vWH
	0x0010 83 ec 18 48 89 6c 24 10 48 8d 6c 24 10 48 8b 44  ...H.l$.H.l$.H.D
	0x0020 24 20 48 8b 4c 24 28 48 29 c8 48 19 c9 48 f7 d9  $ H.L$(H).H..H..
	0x0030 48 85 c9 75 0f 48 89 44 24 30 48 8b 6c 24 10 48  H..u.H.D$0H.l$.H
	0x0040 83 c4 18 c3 48 8d 05 00 00 00 00 48 89 04 24 48  ....H......H..$H
	0x0050 8d 05 00 00 00 00 48 89 44 24 08 0f 1f 44 00 00  ......H.D$...D..
	0x0060 e8 00 00 00 00 90 e8 00 00 00 00 eb 93           .............
	rel 2+0 t=25 type.string<0>+0
	rel 5+4 t=17 TLS+0
	rel 71+4 t=16 type.string<0>+0
	rel 82+4 t=16 ""..stmp_7<0>+0
	rel 97+4 t=8 runtime.gopanic<1>+0
	rel 103+4 t=8 runtime.morestack_noctxt<0>+0
"".Sub64PanicOnOverflowGT<1> STEXT size=109 args=0x18 locals=0x18 funcid=0x0
	0x0000 00000 (/home/laijh/go/src/source-notes/go1.16/test/codegen/mathbits.go:650)	TEXT	"".Sub64PanicOnOverflowGT(SB), ABIInternal, $24-24
	0x0000 00000 (/home/laijh/go/src/source-notes/go1.16/test/codegen/mathbits.go:650)	MOVQ	(TLS), CX
	0x0009 00009 (/home/laijh/go/src/source-notes/go1.16/test/codegen/mathbits.go:650)	CMPQ	SP, 16(CX)
	0x000d 00013 (/home/laijh/go/src/source-notes/go1.16/test/codegen/mathbits.go:650)	PCDATA	$0, $-2
	0x000d 00013 (/home/laijh/go/src/source-notes/go1.16/test/codegen/mathbits.go:650)	JLS	102
	0x000f 00015 (/home/laijh/go/src/source-notes/go1.16/test/codegen/mathbits.go:650)	PCDATA	$0, $-1
	0x000f 00015 (/home/laijh/go/src/source-notes/go1.16/test/codegen/mathbits.go:650)	SUBQ	$24, SP
	0x0013 00019 (/home/laijh/go/src/source-notes/go1.16/test/codegen/mathbits.go:650)	MOVQ	BP, 16(SP)
	0x0018 00024 (/home/laijh/go/src/source-notes/go1.16/test/codegen/mathbits.go:650)	LEAQ	16(SP), BP
	0x001d 00029 (/home/laijh/go/src/source-notes/go1.16/test/codegen/mathbits.go:650)	FUNCDATA	$0, gclocals·33cdeccccebe80329f1fdbee7f5874cb(SB)
	0x001d 00029 (/home/laijh/go/src/source-notes/go1.16/test/codegen/mathbits.go:650)	FUNCDATA	$1, gclocals·33cdeccccebe80329f1fdbee7f5874cb(SB)
	0x001d 00029 (/home/laijh/go/src/source-notes/go1.16/test/codegen/mathbits.go:651)	MOVQ	"".a+32(SP), AX
	0x0022 00034 (/home/laijh/go/src/source-notes/go1.16/test/codegen/mathbits.go:651)	MOVQ	"".b+40(SP), CX
	0x0027 00039 (/home/laijh/go/src/source-notes/go1.16/test/codegen/mathbits.go:651)	SUBQ	CX, AX
	0x002a 00042 (/home/laijh/go/src/source-notes/go1.16/test/codegen/mathbits.go:651)	SBBQ	CX, CX
	0x002d 00045 (/home/laijh/go/src/source-notes/go1.16/test/codegen/mathbits.go:651)	NEGQ	CX
	0x0030 00048 (/home/laijh/go/src/source-notes/go1.16/test/codegen/mathbits.go:653)	TESTQ	CX, CX
	0x0033 00051 (/home/laijh/go/src/source-notes/go1.16/test/codegen/mathbits.go:653)	JHI	68
	0x0035 00053 (/home/laijh/go/src/source-notes/go1.16/test/codegen/mathbits.go:656)	MOVQ	AX, "".~r2+48(SP)
	0x003a 00058 (/home/laijh/go/src/source-notes/go1.16/test/codegen/mathbits.go:656)	MOVQ	16(SP), BP
	0x003f 00063 (/home/laijh/go/src/source-notes/go1.16/test/codegen/mathbits.go:656)	ADDQ	$24, SP
	0x0043 00067 (/home/laijh/go/src/source-notes/go1.16/test/codegen/mathbits.go:656)	RET
	0x0044 00068 (/home/laijh/go/src/source-notes/go1.16/test/codegen/mathbits.go:654)	LEAQ	type.string(SB), AX
	0x004b 00075 (/home/laijh/go/src/source-notes/go1.16/test/codegen/mathbits.go:654)	MOVQ	AX, (SP)
	0x004f 00079 (/home/laijh/go/src/source-notes/go1.16/test/codegen/mathbits.go:654)	LEAQ	""..stmp_8(SB), AX
	0x0056 00086 (/home/laijh/go/src/source-notes/go1.16/test/codegen/mathbits.go:654)	MOVQ	AX, 8(SP)
	0x005b 00091 (/home/laijh/go/src/source-notes/go1.16/test/codegen/mathbits.go:654)	PCDATA	$1, $0
	0x005b 00091 (/home/laijh/go/src/source-notes/go1.16/test/codegen/mathbits.go:654)	NOP
	0x0060 00096 (/home/laijh/go/src/source-notes/go1.16/test/codegen/mathbits.go:654)	CALL	runtime.gopanic(SB)
	0x0065 00101 (/home/laijh/go/src/source-notes/go1.16/test/codegen/mathbits.go:654)	XCHGL	AX, AX
	0x0066 00102 (/home/laijh/go/src/source-notes/go1.16/test/codegen/mathbits.go:654)	NOP
	0x0066 00102 (/home/laijh/go/src/source-notes/go1.16/test/codegen/mathbits.go:650)	PCDATA	$1, $-1
	0x0066 00102 (/home/laijh/go/src/source-notes/go1.16/test/codegen/mathbits.go:650)	PCDATA	$0, $-2
	0x0066 00102 (/home/laijh/go/src/source-notes/go1.16/test/codegen/mathbits.go:650)	CALL	runtime.morestack_noctxt(SB)
	0x006b 00107 (/home/laijh/go/src/source-notes/go1.16/test/codegen/mathbits.go:650)	PCDATA	$0, $-1
	0x006b 00107 (/home/laijh/go/src/source-notes/go1.16/test/codegen/mathbits.go:650)	JMP	0
	0x0000 64 48 8b 0c 25 00 00 00 00 48 3b 61 10 76 57 48  dH..%....H;a.vWH
	0x0010 83 ec 18 48 89 6c 24 10 48 8d 6c 24 10 48 8b 44  ...H.l$.H.l$.H.D
	0x0020 24 20 48 8b 4c 24 28 48 29 c8 48 19 c9 48 f7 d9  $ H.L$(H).H..H..
	0x0030 48 85 c9 77 0f 48 89 44 24 30 48 8b 6c 24 10 48  H..w.H.D$0H.l$.H
	0x0040 83 c4 18 c3 48 8d 05 00 00 00 00 48 89 04 24 48  ....H......H..$H
	0x0050 8d 05 00 00 00 00 48 89 44 24 08 0f 1f 44 00 00  ......H.D$...D..
	0x0060 e8 00 00 00 00 90 e8 00 00 00 00 eb 93           .............
	rel 2+0 t=25 type.string<0>+0
	rel 5+4 t=17 TLS+0
	rel 71+4 t=16 type.string<0>+0
	rel 82+4 t=16 ""..stmp_8<0>+0
	rel 97+4 t=8 runtime.gopanic<1>+0
	rel 103+4 t=8 runtime.morestack_noctxt<0>+0
"".Sub64MPanicOnOverflowEQ<1> STEXT size=138 args=0x30 locals=0x18 funcid=0x0
	0x0000 00000 (/home/laijh/go/src/source-notes/go1.16/test/codegen/mathbits.go:659)	TEXT	"".Sub64MPanicOnOverflowEQ(SB), ABIInternal, $24-48
	0x0000 00000 (/home/laijh/go/src/source-notes/go1.16/test/codegen/mathbits.go:659)	MOVQ	(TLS), CX
	0x0009 00009 (/home/laijh/go/src/source-notes/go1.16/test/codegen/mathbits.go:659)	CMPQ	SP, 16(CX)
	0x000d 00013 (/home/laijh/go/src/source-notes/go1.16/test/codegen/mathbits.go:659)	PCDATA	$0, $-2
	0x000d 00013 (/home/laijh/go/src/source-notes/go1.16/test/codegen/mathbits.go:659)	JLS	128
	0x000f 00015 (/home/laijh/go/src/source-notes/go1.16/test/codegen/mathbits.go:659)	PCDATA	$0, $-1
	0x000f 00015 (/home/laijh/go/src/source-notes/go1.16/test/codegen/mathbits.go:659)	SUBQ	$24, SP
	0x0013 00019 (/home/laijh/go/src/source-notes/go1.16/test/codegen/mathbits.go:659)	MOVQ	BP, 16(SP)
	0x0018 00024 (/home/laijh/go/src/source-notes/go1.16/test/codegen/mathbits.go:659)	LEAQ	16(SP), BP
	0x001d 00029 (/home/laijh/go/src/source-notes/go1.16/test/codegen/mathbits.go:659)	FUNCDATA	$0, gclocals·33cdeccccebe80329f1fdbee7f5874cb(SB)
	0x001d 00029 (/home/laijh/go/src/source-notes/go1.16/test/codegen/mathbits.go:659)	FUNCDATA	$1, gclocals·33cdeccccebe80329f1fdbee7f5874cb(SB)
	0x001d 00029 (/home/laijh/go/src/source-notes/go1.16/test/codegen/mathbits.go:659)	XORPS	X0, X0
	0x0020 00032 (/home/laijh/go/src/source-notes/go1.16/test/codegen/mathbits.go:659)	MOVUPS	X0, "".~r2+64(SP)
	0x0025 00037 (/home/laijh/go/src/source-notes/go1.16/test/codegen/mathbits.go:662)	MOVQ	"".a+32(SP), AX
	0x002a 00042 (/home/laijh/go/src/source-notes/go1.16/test/codegen/mathbits.go:662)	MOVQ	"".b+48(SP), CX
	0x002f 00047 (/home/laijh/go/src/source-notes/go1.16/test/codegen/mathbits.go:662)	SUBQ	CX, AX
	0x0032 00050 (/home/laijh/go/src/source-notes/go1.16/test/codegen/mathbits.go:663)	MOVQ	"".a+40(SP), CX
	0x0037 00055 (/home/laijh/go/src/source-notes/go1.16/test/codegen/mathbits.go:663)	MOVQ	"".b+56(SP), DX
	0x003c 00060 (/home/laijh/go/src/source-notes/go1.16/test/codegen/mathbits.go:663)	SBBQ	DX, CX
	0x003f 00063 (/home/laijh/go/src/source-notes/go1.16/test/codegen/mathbits.go:663)	SBBQ	DX, DX
	0x0042 00066 (/home/laijh/go/src/source-notes/go1.16/test/codegen/mathbits.go:663)	NEGQ	DX
	0x0045 00069 (/home/laijh/go/src/source-notes/go1.16/test/codegen/mathbits.go:665)	CMPQ	DX, $1
	0x0049 00073 (/home/laijh/go/src/source-notes/go1.16/test/codegen/mathbits.go:665)	JEQ	95
	0x004b 00075 (/home/laijh/go/src/source-notes/go1.16/test/codegen/mathbits.go:668)	MOVQ	AX, "".~r2+64(SP)
	0x0050 00080 (/home/laijh/go/src/source-notes/go1.16/test/codegen/mathbits.go:668)	MOVQ	CX, "".~r2+72(SP)
	0x0055 00085 (/home/laijh/go/src/source-notes/go1.16/test/codegen/mathbits.go:668)	MOVQ	16(SP), BP
	0x005a 00090 (/home/laijh/go/src/source-notes/go1.16/test/codegen/mathbits.go:668)	ADDQ	$24, SP
	0x005e 00094 (/home/laijh/go/src/source-notes/go1.16/test/codegen/mathbits.go:668)	RET
	0x005f 00095 (/home/laijh/go/src/source-notes/go1.16/test/codegen/mathbits.go:666)	LEAQ	type.string(SB), AX
	0x0066 00102 (/home/laijh/go/src/source-notes/go1.16/test/codegen/mathbits.go:666)	MOVQ	AX, (SP)
	0x006a 00106 (/home/laijh/go/src/source-notes/go1.16/test/codegen/mathbits.go:666)	LEAQ	""..stmp_9(SB), AX
	0x0071 00113 (/home/laijh/go/src/source-notes/go1.16/test/codegen/mathbits.go:666)	MOVQ	AX, 8(SP)
	0x0076 00118 (/home/laijh/go/src/source-notes/go1.16/test/codegen/mathbits.go:666)	PCDATA	$1, $0
	0x0076 00118 (/home/laijh/go/src/source-notes/go1.16/test/codegen/mathbits.go:666)	CALL	runtime.gopanic(SB)
	0x007b 00123 (/home/laijh/go/src/source-notes/go1.16/test/codegen/mathbits.go:666)	XCHGL	AX, AX
	0x007c 00124 (/home/laijh/go/src/source-notes/go1.16/test/codegen/mathbits.go:666)	NOP
	0x007c 00124 (/home/laijh/go/src/source-notes/go1.16/test/codegen/mathbits.go:659)	PCDATA	$1, $-1
	0x007c 00124 (/home/laijh/go/src/source-notes/go1.16/test/codegen/mathbits.go:659)	PCDATA	$0, $-2
	0x007c 00124 (/home/laijh/go/src/source-notes/go1.16/test/codegen/mathbits.go:659)	NOP
	0x0080 00128 (/home/laijh/go/src/source-notes/go1.16/test/codegen/mathbits.go:659)	CALL	runtime.morestack_noctxt(SB)
	0x0085 00133 (/home/laijh/go/src/source-notes/go1.16/test/codegen/mathbits.go:659)	PCDATA	$0, $-1
	0x0085 00133 (/home/laijh/go/src/source-notes/go1.16/test/codegen/mathbits.go:659)	JMP	0
	0x0000 64 48 8b 0c 25 00 00 00 00 48 3b 61 10 76 71 48  dH..%....H;a.vqH
	0x0010 83 ec 18 48 89 6c 24 10 48 8d 6c 24 10 0f 57 c0  ...H.l$.H.l$..W.
	0x0020 0f 11 44 24 40 48 8b 44 24 20 48 8b 4c 24 30 48  ..D$@H.D$ H.L$0H
	0x0030 29 c8 48 8b 4c 24 28 48 8b 54 24 38 48 19 d1 48  ).H.L$(H.T$8H..H
	0x0040 19 d2 48 f7 da 48 83 fa 01 74 14 48 89 44 24 40  ..H..H...t.H.D$@
	0x0050 48 89 4c 24 48 48 8b 6c 24 10 48 83 c4 18 c3 48  H.L$HH.l$.H....H
	0x0060 8d 05 00 00 00 00 48 89 04 24 48 8d 05 00 00 00  ......H..$H.....
	0x0070 00 48 89 44 24 08 e8 00 00 00 00 90 0f 1f 40 00  .H.D$.........@.
	0x0080 e8 00 00 00 00 e9 76 ff ff ff                    ......v...
	rel 2+0 t=25 type.string<0>+0
	rel 5+4 t=17 TLS+0
	rel 98+4 t=16 type.string<0>+0
	rel 109+4 t=16 ""..stmp_9<0>+0
	rel 119+4 t=8 runtime.gopanic<1>+0
	rel 129+4 t=8 runtime.morestack_noctxt<0>+0
"".Sub64MPanicOnOverflowNE<1> STEXT size=138 args=0x30 locals=0x18 funcid=0x0
	0x0000 00000 (/home/laijh/go/src/source-notes/go1.16/test/codegen/mathbits.go:671)	TEXT	"".Sub64MPanicOnOverflowNE(SB), ABIInternal, $24-48
	0x0000 00000 (/home/laijh/go/src/source-notes/go1.16/test/codegen/mathbits.go:671)	MOVQ	(TLS), CX
	0x0009 00009 (/home/laijh/go/src/source-notes/go1.16/test/codegen/mathbits.go:671)	CMPQ	SP, 16(CX)
	0x000d 00013 (/home/laijh/go/src/source-notes/go1.16/test/codegen/mathbits.go:671)	PCDATA	$0, $-2
	0x000d 00013 (/home/laijh/go/src/source-notes/go1.16/test/codegen/mathbits.go:671)	JLS	128
	0x000f 00015 (/home/laijh/go/src/source-notes/go1.16/test/codegen/mathbits.go:671)	PCDATA	$0, $-1
	0x000f 00015 (/home/laijh/go/src/source-notes/go1.16/test/codegen/mathbits.go:671)	SUBQ	$24, SP
	0x0013 00019 (/home/laijh/go/src/source-notes/go1.16/test/codegen/mathbits.go:671)	MOVQ	BP, 16(SP)
	0x0018 00024 (/home/laijh/go/src/source-notes/go1.16/test/codegen/mathbits.go:671)	LEAQ	16(SP), BP
	0x001d 00029 (/home/laijh/go/src/source-notes/go1.16/test/codegen/mathbits.go:671)	FUNCDATA	$0, gclocals·33cdeccccebe80329f1fdbee7f5874cb(SB)
	0x001d 00029 (/home/laijh/go/src/source-notes/go1.16/test/codegen/mathbits.go:671)	FUNCDATA	$1, gclocals·33cdeccccebe80329f1fdbee7f5874cb(SB)
	0x001d 00029 (/home/laijh/go/src/source-notes/go1.16/test/codegen/mathbits.go:671)	XORPS	X0, X0
	0x0020 00032 (/home/laijh/go/src/source-notes/go1.16/test/codegen/mathbits.go:671)	MOVUPS	X0, "".~r2+64(SP)
	0x0025 00037 (/home/laijh/go/src/source-notes/go1.16/test/codegen/mathbits.go:674)	MOVQ	"".a+32(SP), AX
	0x002a 00042 (/home/laijh/go/src/source-notes/go1.16/test/codegen/mathbits.go:674)	MOVQ	"".b+48(SP), CX
	0x002f 00047 (/home/laijh/go/src/source-notes/go1.16/test/codegen/mathbits.go:674)	SUBQ	CX, AX
	0x0032 00050 (/home/laijh/go/src/source-notes/go1.16/test/codegen/mathbits.go:675)	MOVQ	"".a+40(SP), CX
	0x0037 00055 (/home/laijh/go/src/source-notes/go1.16/test/codegen/mathbits.go:675)	MOVQ	"".b+56(SP), DX
	0x003c 00060 (/home/laijh/go/src/source-notes/go1.16/test/codegen/mathbits.go:675)	SBBQ	DX, CX
	0x003f 00063 (/home/laijh/go/src/source-notes/go1.16/test/codegen/mathbits.go:675)	SBBQ	DX, DX
	0x0042 00066 (/home/laijh/go/src/source-notes/go1.16/test/codegen/mathbits.go:675)	NEGQ	DX
	0x0045 00069 (/home/laijh/go/src/source-notes/go1.16/test/codegen/mathbits.go:677)	TESTQ	DX, DX
	0x0048 00072 (/home/laijh/go/src/source-notes/go1.16/test/codegen/mathbits.go:677)	JNE	94
	0x004a 00074 (/home/laijh/go/src/source-notes/go1.16/test/codegen/mathbits.go:680)	MOVQ	AX, "".~r2+64(SP)
	0x004f 00079 (/home/laijh/go/src/source-notes/go1.16/test/codegen/mathbits.go:680)	MOVQ	CX, "".~r2+72(SP)
	0x0054 00084 (/home/laijh/go/src/source-notes/go1.16/test/codegen/mathbits.go:680)	MOVQ	16(SP), BP
	0x0059 00089 (/home/laijh/go/src/source-notes/go1.16/test/codegen/mathbits.go:680)	ADDQ	$24, SP
	0x005d 00093 (/home/laijh/go/src/source-notes/go1.16/test/codegen/mathbits.go:680)	RET
	0x005e 00094 (/home/laijh/go/src/source-notes/go1.16/test/codegen/mathbits.go:678)	LEAQ	type.string(SB), AX
	0x0065 00101 (/home/laijh/go/src/source-notes/go1.16/test/codegen/mathbits.go:678)	MOVQ	AX, (SP)
	0x0069 00105 (/home/laijh/go/src/source-notes/go1.16/test/codegen/mathbits.go:678)	LEAQ	""..stmp_10(SB), AX
	0x0070 00112 (/home/laijh/go/src/source-notes/go1.16/test/codegen/mathbits.go:678)	MOVQ	AX, 8(SP)
	0x0075 00117 (/home/laijh/go/src/source-notes/go1.16/test/codegen/mathbits.go:678)	PCDATA	$1, $0
	0x0075 00117 (/home/laijh/go/src/source-notes/go1.16/test/codegen/mathbits.go:678)	CALL	runtime.gopanic(SB)
	0x007a 00122 (/home/laijh/go/src/source-notes/go1.16/test/codegen/mathbits.go:678)	XCHGL	AX, AX
	0x007b 00123 (/home/laijh/go/src/source-notes/go1.16/test/codegen/mathbits.go:678)	NOP
	0x007b 00123 (/home/laijh/go/src/source-notes/go1.16/test/codegen/mathbits.go:671)	PCDATA	$1, $-1
	0x007b 00123 (/home/laijh/go/src/source-notes/go1.16/test/codegen/mathbits.go:671)	PCDATA	$0, $-2
	0x007b 00123 (/home/laijh/go/src/source-notes/go1.16/test/codegen/mathbits.go:671)	NOP
	0x0080 00128 (/home/laijh/go/src/source-notes/go1.16/test/codegen/mathbits.go:671)	CALL	runtime.morestack_noctxt(SB)
	0x0085 00133 (/home/laijh/go/src/source-notes/go1.16/test/codegen/mathbits.go:671)	PCDATA	$0, $-1
	0x0085 00133 (/home/laijh/go/src/source-notes/go1.16/test/codegen/mathbits.go:671)	JMP	0
	0x0000 64 48 8b 0c 25 00 00 00 00 48 3b 61 10 76 71 48  dH..%....H;a.vqH
	0x0010 83 ec 18 48 89 6c 24 10 48 8d 6c 24 10 0f 57 c0  ...H.l$.H.l$..W.
	0x0020 0f 11 44 24 40 48 8b 44 24 20 48 8b 4c 24 30 48  ..D$@H.D$ H.L$0H
	0x0030 29 c8 48 8b 4c 24 28 48 8b 54 24 38 48 19 d1 48  ).H.L$(H.T$8H..H
	0x0040 19 d2 48 f7 da 48 85 d2 75 14 48 89 44 24 40 48  ..H..H..u.H.D$@H
	0x0050 89 4c 24 48 48 8b 6c 24 10 48 83 c4 18 c3 48 8d  .L$HH.l$.H....H.
	0x0060 05 00 00 00 00 48 89 04 24 48 8d 05 00 00 00 00  .....H..$H......
	0x0070 48 89 44 24 08 e8 00 00 00 00 90 0f 1f 44 00 00  H.D$.........D..
	0x0080 e8 00 00 00 00 e9 76 ff ff ff                    ......v...
	rel 2+0 t=25 type.string<0>+0
	rel 5+4 t=17 TLS+0
	rel 97+4 t=16 type.string<0>+0
	rel 108+4 t=16 ""..stmp_10<0>+0
	rel 118+4 t=8 runtime.gopanic<1>+0
	rel 129+4 t=8 runtime.morestack_noctxt<0>+0
"".Sub64MPanicOnOverflowGT<1> STEXT size=138 args=0x30 locals=0x18 funcid=0x0
	0x0000 00000 (/home/laijh/go/src/source-notes/go1.16/test/codegen/mathbits.go:683)	TEXT	"".Sub64MPanicOnOverflowGT(SB), ABIInternal, $24-48
	0x0000 00000 (/home/laijh/go/src/source-notes/go1.16/test/codegen/mathbits.go:683)	MOVQ	(TLS), CX
	0x0009 00009 (/home/laijh/go/src/source-notes/go1.16/test/codegen/mathbits.go:683)	CMPQ	SP, 16(CX)
	0x000d 00013 (/home/laijh/go/src/source-notes/go1.16/test/codegen/mathbits.go:683)	PCDATA	$0, $-2
	0x000d 00013 (/home/laijh/go/src/source-notes/go1.16/test/codegen/mathbits.go:683)	JLS	128
	0x000f 00015 (/home/laijh/go/src/source-notes/go1.16/test/codegen/mathbits.go:683)	PCDATA	$0, $-1
	0x000f 00015 (/home/laijh/go/src/source-notes/go1.16/test/codegen/mathbits.go:683)	SUBQ	$24, SP
	0x0013 00019 (/home/laijh/go/src/source-notes/go1.16/test/codegen/mathbits.go:683)	MOVQ	BP, 16(SP)
	0x0018 00024 (/home/laijh/go/src/source-notes/go1.16/test/codegen/mathbits.go:683)	LEAQ	16(SP), BP
	0x001d 00029 (/home/laijh/go/src/source-notes/go1.16/test/codegen/mathbits.go:683)	FUNCDATA	$0, gclocals·33cdeccccebe80329f1fdbee7f5874cb(SB)
	0x001d 00029 (/home/laijh/go/src/source-notes/go1.16/test/codegen/mathbits.go:683)	FUNCDATA	$1, gclocals·33cdeccccebe80329f1fdbee7f5874cb(SB)
	0x001d 00029 (/home/laijh/go/src/source-notes/go1.16/test/codegen/mathbits.go:683)	XORPS	X0, X0
	0x0020 00032 (/home/laijh/go/src/source-notes/go1.16/test/codegen/mathbits.go:683)	MOVUPS	X0, "".~r2+64(SP)
	0x0025 00037 (/home/laijh/go/src/source-notes/go1.16/test/codegen/mathbits.go:686)	MOVQ	"".a+32(SP), AX
	0x002a 00042 (/home/laijh/go/src/source-notes/go1.16/test/codegen/mathbits.go:686)	MOVQ	"".b+48(SP), CX
	0x002f 00047 (/home/laijh/go/src/source-notes/go1.16/test/codegen/mathbits.go:686)	SUBQ	CX, AX
	0x0032 00050 (/home/laijh/go/src/source-notes/go1.16/test/codegen/mathbits.go:687)	MOVQ	"".a+40(SP), CX
	0x0037 00055 (/home/laijh/go/src/source-notes/go1.16/test/codegen/mathbits.go:687)	MOVQ	"".b+56(SP), DX
	0x003c 00060 (/home/laijh/go/src/source-notes/go1.16/test/codegen/mathbits.go:687)	SBBQ	DX, CX
	0x003f 00063 (/home/laijh/go/src/source-notes/go1.16/test/codegen/mathbits.go:687)	SBBQ	DX, DX
	0x0042 00066 (/home/laijh/go/src/source-notes/go1.16/test/codegen/mathbits.go:687)	NEGQ	DX
	0x0045 00069 (/home/laijh/go/src/source-notes/go1.16/test/codegen/mathbits.go:689)	TESTQ	DX, DX
	0x0048 00072 (/home/laijh/go/src/source-notes/go1.16/test/codegen/mathbits.go:689)	JHI	94
	0x004a 00074 (/home/laijh/go/src/source-notes/go1.16/test/codegen/mathbits.go:692)	MOVQ	AX, "".~r2+64(SP)
	0x004f 00079 (/home/laijh/go/src/source-notes/go1.16/test/codegen/mathbits.go:692)	MOVQ	CX, "".~r2+72(SP)
	0x0054 00084 (/home/laijh/go/src/source-notes/go1.16/test/codegen/mathbits.go:692)	MOVQ	16(SP), BP
	0x0059 00089 (/home/laijh/go/src/source-notes/go1.16/test/codegen/mathbits.go:692)	ADDQ	$24, SP
	0x005d 00093 (/home/laijh/go/src/source-notes/go1.16/test/codegen/mathbits.go:692)	RET
	0x005e 00094 (/home/laijh/go/src/source-notes/go1.16/test/codegen/mathbits.go:690)	LEAQ	type.string(SB), AX
	0x0065 00101 (/home/laijh/go/src/source-notes/go1.16/test/codegen/mathbits.go:690)	MOVQ	AX, (SP)
	0x0069 00105 (/home/laijh/go/src/source-notes/go1.16/test/codegen/mathbits.go:690)	LEAQ	""..stmp_11(SB), AX
	0x0070 00112 (/home/laijh/go/src/source-notes/go1.16/test/codegen/mathbits.go:690)	MOVQ	AX, 8(SP)
	0x0075 00117 (/home/laijh/go/src/source-notes/go1.16/test/codegen/mathbits.go:690)	PCDATA	$1, $0
	0x0075 00117 (/home/laijh/go/src/source-notes/go1.16/test/codegen/mathbits.go:690)	CALL	runtime.gopanic(SB)
	0x007a 00122 (/home/laijh/go/src/source-notes/go1.16/test/codegen/mathbits.go:690)	XCHGL	AX, AX
	0x007b 00123 (/home/laijh/go/src/source-notes/go1.16/test/codegen/mathbits.go:690)	NOP
	0x007b 00123 (/home/laijh/go/src/source-notes/go1.16/test/codegen/mathbits.go:683)	PCDATA	$1, $-1
	0x007b 00123 (/home/laijh/go/src/source-notes/go1.16/test/codegen/mathbits.go:683)	PCDATA	$0, $-2
	0x007b 00123 (/home/laijh/go/src/source-notes/go1.16/test/codegen/mathbits.go:683)	NOP
	0x0080 00128 (/home/laijh/go/src/source-notes/go1.16/test/codegen/mathbits.go:683)	CALL	runtime.morestack_noctxt(SB)
	0x0085 00133 (/home/laijh/go/src/source-notes/go1.16/test/codegen/mathbits.go:683)	PCDATA	$0, $-1
	0x0085 00133 (/home/laijh/go/src/source-notes/go1.16/test/codegen/mathbits.go:683)	JMP	0
	0x0000 64 48 8b 0c 25 00 00 00 00 48 3b 61 10 76 71 48  dH..%....H;a.vqH
	0x0010 83 ec 18 48 89 6c 24 10 48 8d 6c 24 10 0f 57 c0  ...H.l$.H.l$..W.
	0x0020 0f 11 44 24 40 48 8b 44 24 20 48 8b 4c 24 30 48  ..D$@H.D$ H.L$0H
	0x0030 29 c8 48 8b 4c 24 28 48 8b 54 24 38 48 19 d1 48  ).H.L$(H.T$8H..H
	0x0040 19 d2 48 f7 da 48 85 d2 77 14 48 89 44 24 40 48  ..H..H..w.H.D$@H
	0x0050 89 4c 24 48 48 8b 6c 24 10 48 83 c4 18 c3 48 8d  .L$HH.l$.H....H.
	0x0060 05 00 00 00 00 48 89 04 24 48 8d 05 00 00 00 00  .....H..$H......
	0x0070 48 89 44 24 08 e8 00 00 00 00 90 0f 1f 44 00 00  H.D$.........D..
	0x0080 e8 00 00 00 00 e9 76 ff ff ff                    ......v...
	rel 2+0 t=25 type.string<0>+0
	rel 5+4 t=17 TLS+0
	rel 97+4 t=16 type.string<0>+0
	rel 108+4 t=16 ""..stmp_11<0>+0
	rel 118+4 t=8 runtime.gopanic<1>+0
	rel 129+4 t=8 runtime.morestack_noctxt<0>+0
"".Mul<1> STEXT nosplit size=24 args=0x20 locals=0x0 funcid=0x0
	0x0000 00000 (/home/laijh/go/src/source-notes/go1.16/test/codegen/mathbits.go:699)	TEXT	"".Mul(SB), NOSPLIT|ABIInternal, $0-32
	0x0000 00000 (/home/laijh/go/src/source-notes/go1.16/test/codegen/mathbits.go:699)	FUNCDATA	$0, gclocals·33cdeccccebe80329f1fdbee7f5874cb(SB)
	0x0000 00000 (/home/laijh/go/src/source-notes/go1.16/test/codegen/mathbits.go:699)	FUNCDATA	$1, gclocals·33cdeccccebe80329f1fdbee7f5874cb(SB)
	0x0000 00000 (/home/laijh/go/src/source-notes/go1.16/test/codegen/mathbits.go:706)	MOVQ	"".x+8(SP), AX
	0x0005 00005 (/home/laijh/go/src/source-notes/go1.16/test/codegen/mathbits.go:706)	MOVQ	"".y+16(SP), CX
	0x000a 00010 (/home/laijh/go/src/source-notes/go1.16/test/codegen/mathbits.go:706)	MULQ	CX
	0x000d 00013 (/home/laijh/go/src/source-notes/go1.16/test/codegen/mathbits.go:706)	MOVQ	DX, "".hi+24(SP)
	0x0012 00018 (/home/laijh/go/src/source-notes/go1.16/test/codegen/mathbits.go:706)	MOVQ	AX, "".lo+32(SP)
	0x0017 00023 (/home/laijh/go/src/source-notes/go1.16/test/codegen/mathbits.go:706)	RET
	0x0000 48 8b 44 24 08 48 8b 4c 24 10 48 f7 e1 48 89 54  H.D$.H.L$.H..H.T
	0x0010 24 18 48 89 44 24 20 c3                          $.H.D$ .
"".Mul64<1> STEXT nosplit size=24 args=0x20 locals=0x0 funcid=0x0
	0x0000 00000 (/home/laijh/go/src/source-notes/go1.16/test/codegen/mathbits.go:709)	TEXT	"".Mul64(SB), NOSPLIT|ABIInternal, $0-32
	0x0000 00000 (/home/laijh/go/src/source-notes/go1.16/test/codegen/mathbits.go:709)	FUNCDATA	$0, gclocals·33cdeccccebe80329f1fdbee7f5874cb(SB)
	0x0000 00000 (/home/laijh/go/src/source-notes/go1.16/test/codegen/mathbits.go:709)	FUNCDATA	$1, gclocals·33cdeccccebe80329f1fdbee7f5874cb(SB)
	0x0000 00000 (/home/laijh/go/src/source-notes/go1.16/test/codegen/mathbits.go:716)	MOVQ	"".x+8(SP), AX
	0x0005 00005 (/home/laijh/go/src/source-notes/go1.16/test/codegen/mathbits.go:716)	MOVQ	"".y+16(SP), CX
	0x000a 00010 (/home/laijh/go/src/source-notes/go1.16/test/codegen/mathbits.go:716)	MULQ	CX
	0x000d 00013 (/home/laijh/go/src/source-notes/go1.16/test/codegen/mathbits.go:716)	MOVQ	DX, "".hi+24(SP)
	0x0012 00018 (/home/laijh/go/src/source-notes/go1.16/test/codegen/mathbits.go:716)	MOVQ	AX, "".lo+32(SP)
	0x0017 00023 (/home/laijh/go/src/source-notes/go1.16/test/codegen/mathbits.go:716)	RET
	0x0000 48 8b 44 24 08 48 8b 4c 24 10 48 f7 e1 48 89 54  H.D$.H.L$.H..H.T
	0x0010 24 18 48 89 44 24 20 c3                          $.H.D$ .
"".Div<1> STEXT size=92 args=0x28 locals=0x8 funcid=0x0
	0x0000 00000 (/home/laijh/go/src/source-notes/go1.16/test/codegen/mathbits.go:723)	TEXT	"".Div(SB), ABIInternal, $8-40
	0x0000 00000 (/home/laijh/go/src/source-notes/go1.16/test/codegen/mathbits.go:723)	MOVQ	(TLS), CX
	0x0009 00009 (/home/laijh/go/src/source-notes/go1.16/test/codegen/mathbits.go:723)	CMPQ	SP, 16(CX)
	0x000d 00013 (/home/laijh/go/src/source-notes/go1.16/test/codegen/mathbits.go:723)	PCDATA	$0, $-2
	0x000d 00013 (/home/laijh/go/src/source-notes/go1.16/test/codegen/mathbits.go:723)	JLS	85
	0x000f 00015 (/home/laijh/go/src/source-notes/go1.16/test/codegen/mathbits.go:723)	PCDATA	$0, $-1
	0x000f 00015 (/home/laijh/go/src/source-notes/go1.16/test/codegen/mathbits.go:723)	SUBQ	$8, SP
	0x0013 00019 (/home/laijh/go/src/source-notes/go1.16/test/codegen/mathbits.go:723)	MOVQ	BP, (SP)
	0x0017 00023 (/home/laijh/go/src/source-notes/go1.16/test/codegen/mathbits.go:723)	LEAQ	(SP), BP
	0x001b 00027 (/home/laijh/go/src/source-notes/go1.16/test/codegen/mathbits.go:723)	FUNCDATA	$0, gclocals·33cdeccccebe80329f1fdbee7f5874cb(SB)
	0x001b 00027 (/home/laijh/go/src/source-notes/go1.16/test/codegen/mathbits.go:723)	FUNCDATA	$1, gclocals·33cdeccccebe80329f1fdbee7f5874cb(SB)
	0x001b 00027 (/home/laijh/go/src/source-notes/go1.16/test/codegen/mathbits.go:725)	MOVQ	"".x+32(SP), CX
	0x0020 00032 (/home/laijh/go/src/source-notes/go1.16/test/codegen/mathbits.go:725)	TESTQ	CX, CX
	0x0023 00035 (/home/laijh/go/src/source-notes/go1.16/test/codegen/mathbits.go:725)	JEQ	79
	0x0025 00037 (/home/laijh/go/src/source-notes/go1.16/test/codegen/mathbits.go:725)	MOVQ	"".hi+16(SP), DX
	0x002a 00042 (/home/laijh/go/src/source-notes/go1.16/test/codegen/mathbits.go:725)	CMPQ	DX, CX
	0x002d 00045 (/home/laijh/go/src/source-notes/go1.16/test/codegen/mathbits.go:725)	JCC	74
	0x002f 00047 (/home/laijh/go/src/source-notes/go1.16/test/codegen/mathbits.go:725)	MOVQ	"".lo+24(SP), AX
	0x0034 00052 (/home/laijh/go/src/source-notes/go1.16/test/codegen/mathbits.go:725)	DIVQ	CX
	0x0037 00055 (/home/laijh/go/src/source-notes/go1.16/test/codegen/mathbits.go:725)	MOVQ	AX, "".q+40(SP)
	0x003c 00060 (/home/laijh/go/src/source-notes/go1.16/test/codegen/mathbits.go:725)	MOVQ	DX, "".r+48(SP)
	0x0041 00065 (/home/laijh/go/src/source-notes/go1.16/test/codegen/mathbits.go:725)	MOVQ	(SP), BP
	0x0045 00069 (/home/laijh/go/src/source-notes/go1.16/test/codegen/mathbits.go:725)	ADDQ	$8, SP
	0x0049 00073 (/home/laijh/go/src/source-notes/go1.16/test/codegen/mathbits.go:725)	RET
	0x004a 00074 (/home/laijh/go/src/source-notes/go1.16/test/codegen/mathbits.go:725)	PCDATA	$1, $0
	0x004a 00074 (/home/laijh/go/src/source-notes/go1.16/test/codegen/mathbits.go:725)	CALL	runtime.panicoverflow(SB)
	0x004f 00079 (/home/laijh/go/src/source-notes/go1.16/test/codegen/mathbits.go:725)	CALL	runtime.panicdivide(SB)
	0x0054 00084 (/home/laijh/go/src/source-notes/go1.16/test/codegen/mathbits.go:725)	XCHGL	AX, AX
	0x0055 00085 (/home/laijh/go/src/source-notes/go1.16/test/codegen/mathbits.go:725)	NOP
	0x0055 00085 (/home/laijh/go/src/source-notes/go1.16/test/codegen/mathbits.go:723)	PCDATA	$1, $-1
	0x0055 00085 (/home/laijh/go/src/source-notes/go1.16/test/codegen/mathbits.go:723)	PCDATA	$0, $-2
	0x0055 00085 (/home/laijh/go/src/source-notes/go1.16/test/codegen/mathbits.go:723)	CALL	runtime.morestack_noctxt(SB)
	0x005a 00090 (/home/laijh/go/src/source-notes/go1.16/test/codegen/mathbits.go:723)	PCDATA	$0, $-1
	0x005a 00090 (/home/laijh/go/src/source-notes/go1.16/test/codegen/mathbits.go:723)	JMP	0
	0x0000 64 48 8b 0c 25 00 00 00 00 48 3b 61 10 76 46 48  dH..%....H;a.vFH
	0x0010 83 ec 08 48 89 2c 24 48 8d 2c 24 48 8b 4c 24 20  ...H.,$H.,$H.L$ 
	0x0020 48 85 c9 74 2a 48 8b 54 24 10 48 39 ca 73 1b 48  H..t*H.T$.H9.s.H
	0x0030 8b 44 24 18 48 f7 f1 48 89 44 24 28 48 89 54 24  .D$.H..H.D$(H.T$
	0x0040 30 48 8b 2c 24 48 83 c4 08 c3 e8 00 00 00 00 e8  0H.,$H..........
	0x0050 00 00 00 00 90 e8 00 00 00 00 eb a4              ............
	rel 5+4 t=17 TLS+0
	rel 75+4 t=8 runtime.panicoverflow<1>+0
	rel 80+4 t=8 runtime.panicdivide<1>+0
	rel 86+4 t=8 runtime.morestack_noctxt<0>+0
"".Div32<1> STEXT size=145 args=0x18 locals=0x18 funcid=0x0
	0x0000 00000 (/home/laijh/go/src/source-notes/go1.16/test/codegen/mathbits.go:728)	TEXT	"".Div32(SB), ABIInternal, $24-24
	0x0000 00000 (/home/laijh/go/src/source-notes/go1.16/test/codegen/mathbits.go:728)	MOVQ	(TLS), CX
	0x0009 00009 (/home/laijh/go/src/source-notes/go1.16/test/codegen/mathbits.go:728)	CMPQ	SP, 16(CX)
	0x000d 00013 (/home/laijh/go/src/source-notes/go1.16/test/codegen/mathbits.go:728)	PCDATA	$0, $-2
	0x000d 00013 (/home/laijh/go/src/source-notes/go1.16/test/codegen/mathbits.go:728)	JLS	135
	0x000f 00015 (/home/laijh/go/src/source-notes/go1.16/test/codegen/mathbits.go:728)	PCDATA	$0, $-1
	0x000f 00015 (/home/laijh/go/src/source-notes/go1.16/test/codegen/mathbits.go:728)	SUBQ	$24, SP
	0x0013 00019 (/home/laijh/go/src/source-notes/go1.16/test/codegen/mathbits.go:728)	MOVQ	BP, 16(SP)
	0x0018 00024 (/home/laijh/go/src/source-notes/go1.16/test/codegen/mathbits.go:728)	LEAQ	16(SP), BP
	0x001d 00029 (/home/laijh/go/src/source-notes/go1.16/test/codegen/mathbits.go:728)	FUNCDATA	$0, gclocals·33cdeccccebe80329f1fdbee7f5874cb(SB)
	0x001d 00029 (/home/laijh/go/src/source-notes/go1.16/test/codegen/mathbits.go:728)	FUNCDATA	$1, gclocals·33cdeccccebe80329f1fdbee7f5874cb(SB)
	0x001d 00029 (<unknown line number>)	NOP
	0x001d 00029 (/home/laijh/go/src/source-notes/go1.16/test/codegen/mathbits.go:730)	MOVL	"".x+40(SP), CX
	0x0021 00033 (/home/laijh/go/src/source-notes/go1.16/test/codegen/mathbits.go:730)	TESTL	CX, CX
	0x0023 00035 (/home/laijh/go/src/source-notes/go1.16/test/codegen/mathbits.go:730)	JEQ	84
	0x0025 00037 (/home/laijh/go/src/source-notes/go1.16/test/codegen/mathbits.go:730)	MOVL	"".hi+32(SP), AX
	0x0029 00041 (/home/laijh/go/src/source-notes/go1.16/test/codegen/mathbits.go:730)	CMPL	AX, CX
	0x002b 00043 (/home/laijh/go/src/source-notes/go1.16/test/codegen/mathbits.go:730)	JCC	90
	0x002d 00045 (/home/laijh/go/src/source-notes/go1.16/test/codegen/mathbits.go:730)	SHLQ	$32, AX
	0x0031 00049 (/home/laijh/go/src/source-notes/go1.16/test/codegen/mathbits.go:730)	MOVL	"".lo+36(SP), DX
	0x0035 00053 (/home/laijh/go/src/source-notes/go1.16/test/codegen/mathbits.go:730)	ORQ	DX, AX
	0x0038 00056 (/home/laijh/go/src/source-notes/go1.16/test/codegen/mathbits.go:730)	TESTQ	CX, CX
	0x003b 00059 (/home/laijh/go/src/source-notes/go1.16/test/codegen/mathbits.go:730)	JEQ	115
	0x003d 00061 (/home/laijh/go/src/source-notes/go1.16/test/codegen/mathbits.go:730)	XORL	DX, DX
	0x003f 00063 (/home/laijh/go/src/source-notes/go1.16/test/codegen/mathbits.go:730)	DIVQ	CX
	0x0042 00066 (/home/laijh/go/src/source-notes/go1.16/test/codegen/mathbits.go:730)	MOVL	AX, "".q+48(SP)
	0x0046 00070 (/home/laijh/go/src/source-notes/go1.16/test/codegen/mathbits.go:730)	MOVL	DX, "".r+52(SP)
	0x004a 00074 (/home/laijh/go/src/source-notes/go1.16/test/codegen/mathbits.go:730)	MOVQ	16(SP), BP
	0x004f 00079 (/home/laijh/go/src/source-notes/go1.16/test/codegen/mathbits.go:730)	ADDQ	$24, SP
	0x0053 00083 (/home/laijh/go/src/source-notes/go1.16/test/codegen/mathbits.go:730)	RET
	0x0054 00084 (/home/laijh/go/src/source-notes/go1.16/test/codegen/mathbits.go:730)	MOVL	"".hi+32(SP), AX
	0x0058 00088 (/home/laijh/go/src/source-notes/go1.16/test/codegen/mathbits.go:730)	JMP	45
	0x005a 00090 (/home/laijh/go/src/source-notes/go1.16/test/codegen/mathbits.go:730)	MOVQ	runtime.overflowError(SB), AX
	0x0061 00097 (/home/laijh/go/src/source-notes/go1.16/test/codegen/mathbits.go:730)	MOVQ	runtime.overflowError+8(SB), CX
	0x0068 00104 (/home/laijh/go/src/source-notes/go1.16/test/codegen/mathbits.go:730)	TESTQ	AX, AX
	0x006b 00107 (/home/laijh/go/src/source-notes/go1.16/test/codegen/mathbits.go:730)	JEQ	120
	0x006d 00109 (/home/laijh/go/src/source-notes/go1.16/test/codegen/mathbits.go:730)	MOVQ	8(AX), AX
	0x0071 00113 (/home/laijh/go/src/source-notes/go1.16/test/codegen/mathbits.go:730)	JMP	120
	0x0073 00115 (/home/laijh/go/src/source-notes/go1.16/test/codegen/mathbits.go:730)	PCDATA	$1, $0
	0x0073 00115 (/home/laijh/go/src/source-notes/go1.16/test/codegen/mathbits.go:730)	CALL	runtime.panicdivide(SB)
	0x0078 00120 (/home/laijh/go/src/source-notes/go1.16/test/codegen/mathbits.go:730)	MOVQ	AX, (SP)
	0x007c 00124 (/home/laijh/go/src/source-notes/go1.16/test/codegen/mathbits.go:730)	MOVQ	CX, 8(SP)
	0x0081 00129 (/home/laijh/go/src/source-notes/go1.16/test/codegen/mathbits.go:730)	CALL	runtime.gopanic(SB)
	0x0086 00134 (/home/laijh/go/src/source-notes/go1.16/test/codegen/mathbits.go:730)	XCHGL	AX, AX
	0x0087 00135 (/home/laijh/go/src/source-notes/go1.16/test/codegen/mathbits.go:730)	NOP
	0x0087 00135 (/home/laijh/go/src/source-notes/go1.16/test/codegen/mathbits.go:728)	PCDATA	$1, $-1
	0x0087 00135 (/home/laijh/go/src/source-notes/go1.16/test/codegen/mathbits.go:728)	PCDATA	$0, $-2
	0x0087 00135 (/home/laijh/go/src/source-notes/go1.16/test/codegen/mathbits.go:728)	CALL	runtime.morestack_noctxt(SB)
	0x008c 00140 (/home/laijh/go/src/source-notes/go1.16/test/codegen/mathbits.go:728)	PCDATA	$0, $-1
	0x008c 00140 (/home/laijh/go/src/source-notes/go1.16/test/codegen/mathbits.go:728)	JMP	0
	0x0000 64 48 8b 0c 25 00 00 00 00 48 3b 61 10 76 78 48  dH..%....H;a.vxH
	0x0010 83 ec 18 48 89 6c 24 10 48 8d 6c 24 10 8b 4c 24  ...H.l$.H.l$..L$
	0x0020 28 85 c9 74 2f 8b 44 24 20 39 c8 73 2d 48 c1 e0  (..t/.D$ 9.s-H..
	0x0030 20 8b 54 24 24 48 09 d0 48 85 c9 74 36 31 d2 48   .T$$H..H..t61.H
	0x0040 f7 f1 89 44 24 30 89 54 24 34 48 8b 6c 24 10 48  ...D$0.T$4H.l$.H
	0x0050 83 c4 18 c3 8b 44 24 20 eb d3 48 8b 05 00 00 00  .....D$ ..H.....
	0x0060 00 48 8b 0d 00 00 00 00 48 85 c0 74 0b 48 8b 40  .H......H..t.H.@
	0x0070 08 eb 05 e8 00 00 00 00 48 89 04 24 48 89 4c 24  ........H..$H.L$
	0x0080 08 e8 00 00 00 00 90 e8 00 00 00 00 e9 6f ff ff  .............o..
	0x0090 ff                                               .
	rel 5+4 t=17 TLS+0
	rel 93+4 t=16 runtime.overflowError<0>+0
	rel 100+4 t=16 runtime.overflowError<0>+8
	rel 116+4 t=8 runtime.panicdivide<1>+0
	rel 130+4 t=8 runtime.gopanic<1>+0
	rel 136+4 t=8 runtime.morestack_noctxt<0>+0
"".Div64<1> STEXT size=92 args=0x28 locals=0x8 funcid=0x0
	0x0000 00000 (/home/laijh/go/src/source-notes/go1.16/test/codegen/mathbits.go:733)	TEXT	"".Div64(SB), ABIInternal, $8-40
	0x0000 00000 (/home/laijh/go/src/source-notes/go1.16/test/codegen/mathbits.go:733)	MOVQ	(TLS), CX
	0x0009 00009 (/home/laijh/go/src/source-notes/go1.16/test/codegen/mathbits.go:733)	CMPQ	SP, 16(CX)
	0x000d 00013 (/home/laijh/go/src/source-notes/go1.16/test/codegen/mathbits.go:733)	PCDATA	$0, $-2
	0x000d 00013 (/home/laijh/go/src/source-notes/go1.16/test/codegen/mathbits.go:733)	JLS	85
	0x000f 00015 (/home/laijh/go/src/source-notes/go1.16/test/codegen/mathbits.go:733)	PCDATA	$0, $-1
	0x000f 00015 (/home/laijh/go/src/source-notes/go1.16/test/codegen/mathbits.go:733)	SUBQ	$8, SP
	0x0013 00019 (/home/laijh/go/src/source-notes/go1.16/test/codegen/mathbits.go:733)	MOVQ	BP, (SP)
	0x0017 00023 (/home/laijh/go/src/source-notes/go1.16/test/codegen/mathbits.go:733)	LEAQ	(SP), BP
	0x001b 00027 (/home/laijh/go/src/source-notes/go1.16/test/codegen/mathbits.go:733)	FUNCDATA	$0, gclocals·33cdeccccebe80329f1fdbee7f5874cb(SB)
	0x001b 00027 (/home/laijh/go/src/source-notes/go1.16/test/codegen/mathbits.go:733)	FUNCDATA	$1, gclocals·33cdeccccebe80329f1fdbee7f5874cb(SB)
	0x001b 00027 (/home/laijh/go/src/source-notes/go1.16/test/codegen/mathbits.go:735)	MOVQ	"".x+32(SP), CX
	0x0020 00032 (/home/laijh/go/src/source-notes/go1.16/test/codegen/mathbits.go:735)	TESTQ	CX, CX
	0x0023 00035 (/home/laijh/go/src/source-notes/go1.16/test/codegen/mathbits.go:735)	JEQ	79
	0x0025 00037 (/home/laijh/go/src/source-notes/go1.16/test/codegen/mathbits.go:735)	MOVQ	"".hi+16(SP), DX
	0x002a 00042 (/home/laijh/go/src/source-notes/go1.16/test/codegen/mathbits.go:735)	CMPQ	DX, CX
	0x002d 00045 (/home/laijh/go/src/source-notes/go1.16/test/codegen/mathbits.go:735)	JCC	74
	0x002f 00047 (/home/laijh/go/src/source-notes/go1.16/test/codegen/mathbits.go:735)	MOVQ	"".lo+24(SP), AX
	0x0034 00052 (/home/laijh/go/src/source-notes/go1.16/test/codegen/mathbits.go:735)	DIVQ	CX
	0x0037 00055 (/home/laijh/go/src/source-notes/go1.16/test/codegen/mathbits.go:735)	MOVQ	AX, "".q+40(SP)
	0x003c 00060 (/home/laijh/go/src/source-notes/go1.16/test/codegen/mathbits.go:735)	MOVQ	DX, "".r+48(SP)
	0x0041 00065 (/home/laijh/go/src/source-notes/go1.16/test/codegen/mathbits.go:735)	MOVQ	(SP), BP
	0x0045 00069 (/home/laijh/go/src/source-notes/go1.16/test/codegen/mathbits.go:735)	ADDQ	$8, SP
	0x0049 00073 (/home/laijh/go/src/source-notes/go1.16/test/codegen/mathbits.go:735)	RET
	0x004a 00074 (/home/laijh/go/src/source-notes/go1.16/test/codegen/mathbits.go:735)	PCDATA	$1, $0
	0x004a 00074 (/home/laijh/go/src/source-notes/go1.16/test/codegen/mathbits.go:735)	CALL	runtime.panicoverflow(SB)
	0x004f 00079 (/home/laijh/go/src/source-notes/go1.16/test/codegen/mathbits.go:735)	CALL	runtime.panicdivide(SB)
	0x0054 00084 (/home/laijh/go/src/source-notes/go1.16/test/codegen/mathbits.go:735)	XCHGL	AX, AX
	0x0055 00085 (/home/laijh/go/src/source-notes/go1.16/test/codegen/mathbits.go:735)	NOP
	0x0055 00085 (/home/laijh/go/src/source-notes/go1.16/test/codegen/mathbits.go:733)	PCDATA	$1, $-1
	0x0055 00085 (/home/laijh/go/src/source-notes/go1.16/test/codegen/mathbits.go:733)	PCDATA	$0, $-2
	0x0055 00085 (/home/laijh/go/src/source-notes/go1.16/test/codegen/mathbits.go:733)	CALL	runtime.morestack_noctxt(SB)
	0x005a 00090 (/home/laijh/go/src/source-notes/go1.16/test/codegen/mathbits.go:733)	PCDATA	$0, $-1
	0x005a 00090 (/home/laijh/go/src/source-notes/go1.16/test/codegen/mathbits.go:733)	JMP	0
	0x0000 64 48 8b 0c 25 00 00 00 00 48 3b 61 10 76 46 48  dH..%....H;a.vFH
	0x0010 83 ec 08 48 89 2c 24 48 8d 2c 24 48 8b 4c 24 20  ...H.,$H.,$H.L$ 
	0x0020 48 85 c9 74 2a 48 8b 54 24 10 48 39 ca 73 1b 48  H..t*H.T$.H9.s.H
	0x0030 8b 44 24 18 48 f7 f1 48 89 44 24 28 48 89 54 24  .D$.H..H.D$(H.T$
	0x0040 30 48 8b 2c 24 48 83 c4 08 c3 e8 00 00 00 00 e8  0H.,$H..........
	0x0050 00 00 00 00 90 e8 00 00 00 00 eb a4              ............
	rel 5+4 t=17 TLS+0
	rel 75+4 t=8 runtime.panicoverflow<1>+0
	rel 80+4 t=8 runtime.panicdivide<1>+0
	rel 86+4 t=8 runtime.morestack_noctxt<0>+0
"".Div64degenerate<1> STEXT nosplit size=40 args=0x18 locals=0x0 funcid=0x0
	0x0000 00000 (/home/laijh/go/src/source-notes/go1.16/test/codegen/mathbits.go:738)	TEXT	"".Div64degenerate(SB), NOSPLIT|ABIInternal, $0-24
	0x0000 00000 (/home/laijh/go/src/source-notes/go1.16/test/codegen/mathbits.go:738)	FUNCDATA	$0, gclocals·33cdeccccebe80329f1fdbee7f5874cb(SB)
	0x0000 00000 (/home/laijh/go/src/source-notes/go1.16/test/codegen/mathbits.go:738)	FUNCDATA	$1, gclocals·33cdeccccebe80329f1fdbee7f5874cb(SB)
	0x0000 00000 (/home/laijh/go/src/source-notes/go1.16/test/codegen/mathbits.go:740)	MOVQ	$-3689348814741910323, AX
	0x000a 00010 (/home/laijh/go/src/source-notes/go1.16/test/codegen/mathbits.go:740)	MOVQ	"".x+8(SP), CX
	0x000f 00015 (/home/laijh/go/src/source-notes/go1.16/test/codegen/mathbits.go:740)	MULQ	CX
	0x0012 00018 (/home/laijh/go/src/source-notes/go1.16/test/codegen/mathbits.go:740)	SHRQ	$2, DX
	0x0016 00022 (/home/laijh/go/src/source-notes/go1.16/test/codegen/mathbits.go:740)	MOVQ	DX, "".q+16(SP)
	0x001b 00027 (/home/laijh/go/src/source-notes/go1.16/test/codegen/mathbits.go:740)	LEAQ	(DX)(DX*4), DX
	0x001f 00031 (/home/laijh/go/src/source-notes/go1.16/test/codegen/mathbits.go:740)	SUBQ	DX, CX
	0x0022 00034 (/home/laijh/go/src/source-notes/go1.16/test/codegen/mathbits.go:740)	MOVQ	CX, "".r+24(SP)
	0x0027 00039 (/home/laijh/go/src/source-notes/go1.16/test/codegen/mathbits.go:740)	RET
	0x0000 48 b8 cd cc cc cc cc cc cc cc 48 8b 4c 24 08 48  H.........H.L$.H
	0x0010 f7 e1 48 c1 ea 02 48 89 54 24 10 48 8d 14 92 48  ..H...H.T$.H...H
	0x0020 29 d1 48 89 4c 24 18 c3                          ).H.L$..
go.cuinfo.packagename.command-line-arguments<0> SDWARFCUINFO dupok size=0
	0x0000 63 6f 64 65 67 65 6e                             codegen
go.info.math/bits.LeadingZeros$abstract<0> SDWARFABSFCN dupok size=35
	0x0000 04 6d 61 74 68 2f 62 69 74 73 2e 4c 65 61 64 69  .math/bits.Leadi
	0x0010 6e 67 5a 65 72 6f 73 00 01 01 11 78 00 00 00 00  ngZeros....x....
	0x0020 00 00 00                                         ...
	rel 0+0 t=24 type.uint<0>+0
	rel 30+4 t=31 go.info.uint<0>+0
go.info.math/bits.LeadingZeros64$abstract<0> SDWARFABSFCN dupok size=37
	0x0000 04 6d 61 74 68 2f 62 69 74 73 2e 4c 65 61 64 69  .math/bits.Leadi
	0x0010 6e 67 5a 65 72 6f 73 36 34 00 01 01 11 78 00 00  ngZeros64....x..
	0x0020 00 00 00 00 00                                   .....
	rel 0+0 t=24 type.uint64<0>+0
	rel 32+4 t=31 go.info.uint64<0>+0
go.info.math/bits.LeadingZeros32$abstract<0> SDWARFABSFCN dupok size=37
	0x0000 04 6d 61 74 68 2f 62 69 74 73 2e 4c 65 61 64 69  .math/bits.Leadi
	0x0010 6e 67 5a 65 72 6f 73 33 32 00 01 01 11 78 00 00  ngZeros32....x..
	0x0020 00 00 00 00 00                                   .....
	rel 0+0 t=24 type.uint32<0>+0
	rel 32+4 t=31 go.info.uint32<0>+0
go.info.math/bits.LeadingZeros16$abstract<0> SDWARFABSFCN dupok size=37
	0x0000 04 6d 61 74 68 2f 62 69 74 73 2e 4c 65 61 64 69  .math/bits.Leadi
	0x0010 6e 67 5a 65 72 6f 73 31 36 00 01 01 11 78 00 00  ngZeros16....x..
	0x0020 00 00 00 00 00                                   .....
	rel 0+0 t=24 type.uint16<0>+0
	rel 32+4 t=31 go.info.uint16<0>+0
go.info.math/bits.LeadingZeros8$abstract<0> SDWARFABSFCN dupok size=36
	0x0000 04 6d 61 74 68 2f 62 69 74 73 2e 4c 65 61 64 69  .math/bits.Leadi
	0x0010 6e 67 5a 65 72 6f 73 38 00 01 01 11 78 00 00 00  ngZeros8....x...
	0x0020 00 00 00 00                                      ....
	rel 0+0 t=24 type.uint8<0>+0
	rel 31+4 t=31 go.info.uint8<0>+0
go.info.math/bits.OnesCount8$abstract<0> SDWARFABSFCN dupok size=33
	0x0000 04 6d 61 74 68 2f 62 69 74 73 2e 4f 6e 65 73 43  .math/bits.OnesC
	0x0010 6f 75 6e 74 38 00 01 01 11 78 00 00 00 00 00 00  ount8....x......
	0x0020 00                                               .
	rel 0+0 t=24 type.uint8<0>+0
	rel 28+4 t=31 go.info.uint8<0>+0
go.info.math/bits.ReverseBytes$abstract<0> SDWARFABSFCN dupok size=35
	0x0000 04 6d 61 74 68 2f 62 69 74 73 2e 52 65 76 65 72  .math/bits.Rever
	0x0010 73 65 42 79 74 65 73 00 01 01 11 78 00 00 00 00  seBytes....x....
	0x0020 00 00 00                                         ...
	rel 0+0 t=24 type.uint<0>+0
	rel 30+4 t=31 go.info.uint<0>+0
go.info.math/bits.ReverseBytes16$abstract<0> SDWARFABSFCN dupok size=37
	0x0000 04 6d 61 74 68 2f 62 69 74 73 2e 52 65 76 65 72  .math/bits.Rever
	0x0010 73 65 42 79 74 65 73 31 36 00 01 01 11 78 00 00  seBytes16....x..
	0x0020 00 00 00 00 00                                   .....
	rel 0+0 t=24 type.uint16<0>+0
	rel 32+4 t=31 go.info.uint16<0>+0
go.info.math/bits.TrailingZeros$abstract<0> SDWARFABSFCN dupok size=36
	0x0000 04 6d 61 74 68 2f 62 69 74 73 2e 54 72 61 69 6c  .math/bits.Trail
	0x0010 69 6e 67 5a 65 72 6f 73 00 01 01 11 78 00 00 00  ingZeros....x...
	0x0020 00 00 00 00                                      ....
	rel 0+0 t=24 type.uint<0>+0
	rel 31+4 t=31 go.info.uint<0>+0
go.info.math/bits.Div32$abstract<0> SDWARFABSFCN dupok size=75
	0x0000 04 6d 61 74 68 2f 62 69 74 73 2e 44 69 76 33 32  .math/bits.Div32
	0x0010 00 01 01 11 68 69 00 00 00 00 00 00 11 6c 6f 00  ....hi.......lo.
	0x0020 00 00 00 00 00 11 79 00 00 00 00 00 00 11 71 75  ......y.......qu
	0x0030 6f 00 01 00 00 00 00 11 72 65 6d 00 01 00 00 00  o.......rem.....
	0x0040 00 0c 7a 00 f7 03 00 00 00 00 00                 ..z........
	rel 0+0 t=24 type.uint32<0>+0
	rel 0+0 t=24 type.uint64<0>+0
	rel 24+4 t=31 go.info.uint32<0>+0
	rel 33+4 t=31 go.info.uint32<0>+0
	rel 41+4 t=31 go.info.uint32<0>+0
	rel 51+4 t=31 go.info.uint32<0>+0
	rel 61+4 t=31 go.info.uint32<0>+0
	rel 70+4 t=31 go.info.uint64<0>+0
go.string."overflow"<0> SRODATA dupok size=8
	0x0000 6f 76 65 72 66 6c 6f 77                          overflow
""..stmp_0<0> SRODATA static size=16
	0x0000 00 00 00 00 00 00 00 00 08 00 00 00 00 00 00 00  ................
	rel 0+8 t=1 go.string."overflow"<0>+0
""..stmp_1<0> SRODATA static size=16
	0x0000 00 00 00 00 00 00 00 00 08 00 00 00 00 00 00 00  ................
	rel 0+8 t=1 go.string."overflow"<0>+0
""..stmp_2<0> SRODATA static size=16
	0x0000 00 00 00 00 00 00 00 00 08 00 00 00 00 00 00 00  ................
	rel 0+8 t=1 go.string."overflow"<0>+0
""..stmp_3<0> SRODATA static size=16
	0x0000 00 00 00 00 00 00 00 00 08 00 00 00 00 00 00 00  ................
	rel 0+8 t=1 go.string."overflow"<0>+0
""..stmp_4<0> SRODATA static size=16
	0x0000 00 00 00 00 00 00 00 00 08 00 00 00 00 00 00 00  ................
	rel 0+8 t=1 go.string."overflow"<0>+0
""..stmp_5<0> SRODATA static size=16
	0x0000 00 00 00 00 00 00 00 00 08 00 00 00 00 00 00 00  ................
	rel 0+8 t=1 go.string."overflow"<0>+0
""..stmp_6<0> SRODATA static size=16
	0x0000 00 00 00 00 00 00 00 00 08 00 00 00 00 00 00 00  ................
	rel 0+8 t=1 go.string."overflow"<0>+0
""..stmp_7<0> SRODATA static size=16
	0x0000 00 00 00 00 00 00 00 00 08 00 00 00 00 00 00 00  ................
	rel 0+8 t=1 go.string."overflow"<0>+0
""..stmp_8<0> SRODATA static size=16
	0x0000 00 00 00 00 00 00 00 00 08 00 00 00 00 00 00 00  ................
	rel 0+8 t=1 go.string."overflow"<0>+0
""..stmp_9<0> SRODATA static size=16
	0x0000 00 00 00 00 00 00 00 00 08 00 00 00 00 00 00 00  ................
	rel 0+8 t=1 go.string."overflow"<0>+0
""..stmp_10<0> SRODATA static size=16
	0x0000 00 00 00 00 00 00 00 00 08 00 00 00 00 00 00 00  ................
	rel 0+8 t=1 go.string."overflow"<0>+0
""..stmp_11<0> SRODATA static size=16
	0x0000 00 00 00 00 00 00 00 00 08 00 00 00 00 00 00 00  ................
	rel 0+8 t=1 go.string."overflow"<0>+0
runtime.memequal64·f<0> SRODATA dupok size=8
	0x0000 00 00 00 00 00 00 00 00                          ........
	rel 0+8 t=1 runtime.memequal64<1>+0
runtime.gcbits.01<0> SRODATA dupok size=1
	0x0000 01                                               .
type..namedata.*[]uint-<0> SRODATA dupok size=10
	0x0000 00 00 07 2a 5b 5d 75 69 6e 74                    ...*[]uint
type.*[]uint<0> SRODATA dupok size=56
	0x0000 08 00 00 00 00 00 00 00 08 00 00 00 00 00 00 00  ................
	0x0010 18 5d c1 ed 08 08 08 36 00 00 00 00 00 00 00 00  .].....6........
	0x0020 00 00 00 00 00 00 00 00 00 00 00 00 00 00 00 00  ................
	0x0030 00 00 00 00 00 00 00 00                          ........
	rel 24+8 t=1 runtime.memequal64·f<0>+0
	rel 32+8 t=1 runtime.gcbits.01<0>+0
	rel 40+4 t=5 type..namedata.*[]uint-<0>+0
	rel 48+8 t=1 type.[]uint<0>+0
type.[]uint<0> SRODATA dupok size=56
	0x0000 18 00 00 00 00 00 00 00 08 00 00 00 00 00 00 00  ................
	0x0010 f6 40 5e 7f 02 08 08 17 00 00 00 00 00 00 00 00  .@^.............
	0x0020 00 00 00 00 00 00 00 00 00 00 00 00 00 00 00 00  ................
	0x0030 00 00 00 00 00 00 00 00                          ........
	rel 32+8 t=1 runtime.gcbits.01<0>+0
	rel 40+4 t=5 type..namedata.*[]uint-<0>+0
	rel 44+4 t=6 type.*[]uint<0>+0
	rel 48+8 t=1 type.uint<0>+0
type..eqfunc24<0> SRODATA dupok size=16
	0x0000 00 00 00 00 00 00 00 00 18 00 00 00 00 00 00 00  ................
	rel 0+8 t=1 runtime.memequal_varlen<0>+0
runtime.gcbits.<0> SRODATA dupok size=0
type..namedata.*[3]uint-<0> SRODATA dupok size=11
	0x0000 00 00 08 2a 5b 33 5d 75 69 6e 74                 ...*[3]uint
type.[3]uint<0> SRODATA dupok size=72
	0x0000 18 00 00 00 00 00 00 00 00 00 00 00 00 00 00 00  ................
	0x0010 32 9a 82 db 0a 08 08 11 00 00 00 00 00 00 00 00  2...............
	0x0020 00 00 00 00 00 00 00 00 00 00 00 00 00 00 00 00  ................
	0x0030 00 00 00 00 00 00 00 00 00 00 00 00 00 00 00 00  ................
	0x0040 03 00 00 00 00 00 00 00                          ........
	rel 24+8 t=1 type..eqfunc24<0>+0
	rel 32+8 t=1 runtime.gcbits.<0>+0
	rel 40+4 t=5 type..namedata.*[3]uint-<0>+0
	rel 44+4 t=6 type.*[3]uint<0>+0
	rel 48+8 t=1 type.uint<0>+0
	rel 56+8 t=1 type.[]uint<0>+0
type.*[3]uint<0> SRODATA dupok size=56
	0x0000 08 00 00 00 00 00 00 00 08 00 00 00 00 00 00 00  ................
	0x0010 4e 49 3d fa 08 08 08 36 00 00 00 00 00 00 00 00  NI=....6........
	0x0020 00 00 00 00 00 00 00 00 00 00 00 00 00 00 00 00  ................
	0x0030 00 00 00 00 00 00 00 00                          ........
	rel 24+8 t=1 runtime.memequal64·f<0>+0
	rel 32+8 t=1 runtime.gcbits.01<0>+0
	rel 40+4 t=5 type..namedata.*[3]uint-<0>+0
	rel 48+8 t=1 type.[3]uint<0>+0
type..namedata.*[]uint64-<0> SRODATA dupok size=12
	0x0000 00 00 09 2a 5b 5d 75 69 6e 74 36 34              ...*[]uint64
type.*[]uint64<0> SRODATA dupok size=56
	0x0000 08 00 00 00 00 00 00 00 08 00 00 00 00 00 00 00  ................
	0x0010 2f 44 4b 5c 08 08 08 36 00 00 00 00 00 00 00 00  /DK\...6........
	0x0020 00 00 00 00 00 00 00 00 00 00 00 00 00 00 00 00  ................
	0x0030 00 00 00 00 00 00 00 00                          ........
	rel 24+8 t=1 runtime.memequal64·f<0>+0
	rel 32+8 t=1 runtime.gcbits.01<0>+0
	rel 40+4 t=5 type..namedata.*[]uint64-<0>+0
	rel 48+8 t=1 type.[]uint64<0>+0
type.[]uint64<0> SRODATA dupok size=56
	0x0000 18 00 00 00 00 00 00 00 08 00 00 00 00 00 00 00  ................
	0x0010 3f b5 69 20 02 08 08 17 00 00 00 00 00 00 00 00  ?.i ............
	0x0020 00 00 00 00 00 00 00 00 00 00 00 00 00 00 00 00  ................
	0x0030 00 00 00 00 00 00 00 00                          ........
	rel 32+8 t=1 runtime.gcbits.01<0>+0
	rel 40+4 t=5 type..namedata.*[]uint64-<0>+0
	rel 44+4 t=6 type.*[]uint64<0>+0
	rel 48+8 t=1 type.uint64<0>+0
type..namedata.*[3]uint64-<0> SRODATA dupok size=13
	0x0000 00 00 0a 2a 5b 33 5d 75 69 6e 74 36 34           ...*[3]uint64
type.[3]uint64<0> SRODATA dupok size=72
	0x0000 18 00 00 00 00 00 00 00 00 00 00 00 00 00 00 00  ................
	0x0010 28 27 24 5e 0a 08 08 11 00 00 00 00 00 00 00 00  ('$^............
	0x0020 00 00 00 00 00 00 00 00 00 00 00 00 00 00 00 00  ................
	0x0030 00 00 00 00 00 00 00 00 00 00 00 00 00 00 00 00  ................
	0x0040 03 00 00 00 00 00 00 00                          ........
	rel 24+8 t=1 type..eqfunc24<0>+0
	rel 32+8 t=1 runtime.gcbits.<0>+0
	rel 40+4 t=5 type..namedata.*[3]uint64-<0>+0
	rel 44+4 t=6 type.*[3]uint64<0>+0
	rel 48+8 t=1 type.uint64<0>+0
	rel 56+8 t=1 type.[]uint64<0>+0
type.*[3]uint64<0> SRODATA dupok size=56
	0x0000 08 00 00 00 00 00 00 00 08 00 00 00 00 00 00 00  ................
	0x0010 e0 65 f8 e2 08 08 08 36 00 00 00 00 00 00 00 00  .e.....6........
	0x0020 00 00 00 00 00 00 00 00 00 00 00 00 00 00 00 00  ................
	0x0030 00 00 00 00 00 00 00 00                          ........
	rel 24+8 t=1 runtime.memequal64·f<0>+0
	rel 32+8 t=1 runtime.gcbits.01<0>+0
	rel 40+4 t=5 type..namedata.*[3]uint64-<0>+0
	rel 48+8 t=1 type.[3]uint64<0>+0
runtime.memequal128·f<0> SRODATA dupok size=8
	0x0000 00 00 00 00 00 00 00 00                          ........
	rel 0+8 t=1 runtime.memequal128<1>+0
type..namedata.*[2]uint64-<0> SRODATA dupok size=13
	0x0000 00 00 0a 2a 5b 32 5d 75 69 6e 74 36 34           ...*[2]uint64
type.*[2]uint64<0> SRODATA dupok size=56
	0x0000 08 00 00 00 00 00 00 00 08 00 00 00 00 00 00 00  ................
	0x0010 49 20 93 2f 08 08 08 36 00 00 00 00 00 00 00 00  I ./...6........
	0x0020 00 00 00 00 00 00 00 00 00 00 00 00 00 00 00 00  ................
	0x0030 00 00 00 00 00 00 00 00                          ........
	rel 24+8 t=1 runtime.memequal64·f<0>+0
	rel 32+8 t=1 runtime.gcbits.01<0>+0
	rel 40+4 t=5 type..namedata.*[2]uint64-<0>+0
	rel 48+8 t=1 type.[2]uint64<0>+0
type.[2]uint64<0> SRODATA dupok size=72
	0x0000 10 00 00 00 00 00 00 00 00 00 00 00 00 00 00 00  ................
	0x0010 87 f8 36 aa 0a 08 08 11 00 00 00 00 00 00 00 00  ..6.............
	0x0020 00 00 00 00 00 00 00 00 00 00 00 00 00 00 00 00  ................
	0x0030 00 00 00 00 00 00 00 00 00 00 00 00 00 00 00 00  ................
	0x0040 02 00 00 00 00 00 00 00                          ........
	rel 24+8 t=1 runtime.memequal128·f<0>+0
	rel 32+8 t=1 runtime.gcbits.<0>+0
	rel 40+4 t=5 type..namedata.*[2]uint64-<0>+0
	rel 44+4 t=6 type.*[2]uint64<0>+0
	rel 48+8 t=1 type.uint64<0>+0
	rel 56+8 t=1 type.[]uint64<0>+0
type..importpath.math/bits.<0> SRODATA dupok size=12
	0x0000 00 00 09 6d 61 74 68 2f 62 69 74 73              ...math/bits
gclocals·33cdeccccebe80329f1fdbee7f5874cb<0> SRODATA dupok size=8
	0x0000 01 00 00 00 00 00 00 00                          ........
gclocals·9aa48eca674789341e2d6be6614c399c<0> SRODATA dupok size=10
	0x0000 02 00 00 00 03 00 00 00 07 00                    ..........
gclocals·69c1753bd5f81501d95132d08af04464<0> SRODATA dupok size=8
	0x0000 02 00 00 00 00 00 00 00                          ........
aux for "".LeadingZeros<0> SDWARFRANGE size=64
	0x0000 ff ff ff ff ff ff ff ff 00 00 00 00 00 00 00 00  ................
	0x0010 00 00 00 00 00 00 00 00 09 00 00 00 00 00 00 00  ................
	0x0020 09 00 00 00 00 00 00 00 1b 00 00 00 00 00 00 00  ................
	0x0030 00 00 00 00 00 00 00 00 00 00 00 00 00 00 00 00  ................
	rel 8+8 t=1 "".LeadingZeros<1>+0
aux for "".LeadingZeros<0> SDWARFLOC size=102
	0x0000 ff ff ff ff ff ff ff ff 00 00 00 00 00 00 00 00  ................
	0x0010 00 00 00 00 00 00 00 00 21 00 00 00 00 00 00 00  ........!.......
	0x0020 01 00 9c 00 00 00 00 00 00 00 00 00 00 00 00 00  ................
	0x0030 00 00 00 ff ff ff ff ff ff ff ff 00 00 00 00 00  ................
	0x0040 00 00 00 00 00 00 00 00 00 00 00 21 00 00 00 00  ...........!....
	0x0050 00 00 00 01 00 9c 00 00 00 00 00 00 00 00 00 00  ................
	0x0060 00 00 00 00 00 00                                ......
	rel 8+8 t=1 "".LeadingZeros<1>+0
	rel 59+8 t=1 "".LeadingZeros<1>+0
aux for "".LeadingZeros<0> SDWARFLINES size=29
	0x0000 00 09 02 00 00 00 00 00 00 00 00 04 03 03 0d 14  ................
	0x0010 06 41 04 02 06 ed 06 41 02 01 00 01 01           .A.....A.....
	rel 3+8 t=1 "".LeadingZeros<1>+0
aux for "".LeadingZeros<0> SDWARFFCN size=110
	0x0000 03 63 6f 6d 6d 61 6e 64 2d 6c 69 6e 65 2d 61 72  .command-line-ar
	0x0010 67 75 6d 65 6e 74 73 2e 4c 65 61 64 69 6e 67 5a  guments.LeadingZ
	0x0020 65 72 6f 73 00 00 00 00 00 00 00 00 00 00 00 00  eros............
	0x0030 00 00 00 00 00 01 9c 02 00 00 00 01 10 6e 00 00  .............n..
	0x0040 0f 00 00 00 00 00 00 00 00 0f 7e 72 31 00 01 0f  ..........~r1...
	0x0050 00 00 00 00 00 07 00 00 00 00 00 00 00 00 02 00  ................
	0x0060 00 00 15 13 00 00 00 00 00 00 00 00 00 00        ..............
	rel 0+0 t=24 type.int<0>+0
	rel 37+8 t=1 "".LeadingZeros<1>+0
	rel 45+8 t=1 "".LeadingZeros<1>+33
	rel 65+4 t=31 go.info.uint<0>+0
	rel 69+4 t=31 <0>+0
	rel 80+4 t=31 go.info.int<0>+0
	rel 86+4 t=31 go.info.math/bits.LeadingZeros$abstract<0>+0
	rel 90+4 t=31 <0>+0
	rel 100+4 t=31 go.info.math/bits.LeadingZeros$abstract<0>+26
	rel 104+4 t=31 <0>+51
aux for "".LeadingZeros64<0> SDWARFRANGE size=64
	0x0000 ff ff ff ff ff ff ff ff 00 00 00 00 00 00 00 00  ................
	0x0010 00 00 00 00 00 00 00 00 09 00 00 00 00 00 00 00  ................
	0x0020 09 00 00 00 00 00 00 00 1b 00 00 00 00 00 00 00  ................
	0x0030 00 00 00 00 00 00 00 00 00 00 00 00 00 00 00 00  ................
	rel 8+8 t=1 "".LeadingZeros64<1>+0
aux for "".LeadingZeros64<0> SDWARFLOC size=102
	0x0000 ff ff ff ff ff ff ff ff 00 00 00 00 00 00 00 00  ................
	0x0010 00 00 00 00 00 00 00 00 21 00 00 00 00 00 00 00  ........!.......
	0x0020 01 00 9c 00 00 00 00 00 00 00 00 00 00 00 00 00  ................
	0x0030 00 00 00 ff ff ff ff ff ff ff ff 00 00 00 00 00  ................
	0x0040 00 00 00 00 00 00 00 00 00 00 00 21 00 00 00 00  ...........!....
	0x0050 00 00 00 01 00 9c 00 00 00 00 00 00 00 00 00 00  ................
	0x0060 00 00 00 00 00 00                                ......
	rel 8+8 t=1 "".LeadingZeros64<1>+0
	rel 59+8 t=1 "".LeadingZeros64<1>+0
aux for "".LeadingZeros64<0> SDWARFLINES size=29
	0x0000 00 09 02 00 00 00 00 00 00 00 00 04 03 03 19 14  ................
	0x0010 06 41 04 02 06 ea 06 41 02 01 00 01 01           .A.....A.....
	rel 3+8 t=1 "".LeadingZeros64<1>+0
aux for "".LeadingZeros64<0> SDWARFFCN size=112
	0x0000 03 63 6f 6d 6d 61 6e 64 2d 6c 69 6e 65 2d 61 72  .command-line-ar
	0x0010 67 75 6d 65 6e 74 73 2e 4c 65 61 64 69 6e 67 5a  guments.LeadingZ
	0x0020 65 72 6f 73 36 34 00 00 00 00 00 00 00 00 00 00  eros64..........
	0x0030 00 00 00 00 00 00 00 01 9c 02 00 00 00 01 10 6e  ...............n
	0x0040 00 00 18 00 00 00 00 00 00 00 00 0f 7e 72 31 00  ............~r1.
	0x0050 01 18 00 00 00 00 00 07 00 00 00 00 00 00 00 00  ................
	0x0060 02 00 00 00 1e 13 00 00 00 00 00 00 00 00 00 00  ................
	rel 0+0 t=24 type.int<0>+0
	rel 39+8 t=1 "".LeadingZeros64<1>+0
	rel 47+8 t=1 "".LeadingZeros64<1>+33
	rel 67+4 t=31 go.info.uint64<0>+0
	rel 71+4 t=31 <0>+0
	rel 82+4 t=31 go.info.int<0>+0
	rel 88+4 t=31 go.info.math/bits.LeadingZeros64$abstract<0>+0
	rel 92+4 t=31 <0>+0
	rel 102+4 t=31 go.info.math/bits.LeadingZeros64$abstract<0>+28
	rel 106+4 t=31 <0>+51
aux for "".LeadingZeros32<0> SDWARFRANGE size=64
	0x0000 ff ff ff ff ff ff ff ff 00 00 00 00 00 00 00 00  ................
	0x0010 00 00 00 00 00 00 00 00 10 00 00 00 00 00 00 00  ................
	0x0020 10 00 00 00 00 00 00 00 17 00 00 00 00 00 00 00  ................
	0x0030 00 00 00 00 00 00 00 00 00 00 00 00 00 00 00 00  ................
	rel 8+8 t=1 "".LeadingZeros32<1>+0
aux for "".LeadingZeros32<0> SDWARFLOC size=102
	0x0000 ff ff ff ff ff ff ff ff 00 00 00 00 00 00 00 00  ................
	0x0010 00 00 00 00 00 00 00 00 1d 00 00 00 00 00 00 00  ................
	0x0020 01 00 9c 00 00 00 00 00 00 00 00 00 00 00 00 00  ................
	0x0030 00 00 00 ff ff ff ff ff ff ff ff 00 00 00 00 00  ................
	0x0040 00 00 00 00 00 00 00 00 00 00 00 1d 00 00 00 00  ................
	0x0050 00 00 00 01 00 9c 00 00 00 00 00 00 00 00 00 00  ................
	0x0060 00 00 00 00 00 00                                ......
	rel 8+8 t=1 "".LeadingZeros32<1>+0
	rel 59+8 t=1 "".LeadingZeros32<1>+0
aux for "".LeadingZeros32<0> SDWARFLINES size=31
	0x0000 00 09 02 00 00 00 00 00 00 00 00 04 03 03 16 14  ................
	0x0010 06 37 04 02 06 03 06 d2 06 41 02 01 00 01 01     .7.......A.....
	rel 3+8 t=1 "".LeadingZeros32<1>+0
aux for "".LeadingZeros32<0> SDWARFFCN size=112
	0x0000 03 63 6f 6d 6d 61 6e 64 2d 6c 69 6e 65 2d 61 72  .command-line-ar
	0x0010 67 75 6d 65 6e 74 73 2e 4c 65 61 64 69 6e 67 5a  guments.LeadingZ
	0x0020 65 72 6f 73 33 32 00 00 00 00 00 00 00 00 00 00  eros32..........
	0x0030 00 00 00 00 00 00 00 01 9c 02 00 00 00 01 10 6e  ...............n
	0x0040 00 00 21 00 00 00 00 00 00 00 00 0f 7e 72 31 00  ..!.........~r1.
	0x0050 01 21 00 00 00 00 00 07 00 00 00 00 00 00 00 00  .!..............
	0x0060 02 00 00 00 27 13 00 00 00 00 00 00 00 00 00 00  ....'...........
	rel 0+0 t=24 type.int<0>+0
	rel 39+8 t=1 "".LeadingZeros32<1>+0
	rel 47+8 t=1 "".LeadingZeros32<1>+29
	rel 67+4 t=31 go.info.uint32<0>+0
	rel 71+4 t=31 <0>+0
	rel 82+4 t=31 go.info.int<0>+0
	rel 88+4 t=31 go.info.math/bits.LeadingZeros32$abstract<0>+0
	rel 92+4 t=31 <0>+0
	rel 102+4 t=31 go.info.math/bits.LeadingZeros32$abstract<0>+28
	rel 106+4 t=31 <0>+51
aux for "".LeadingZeros16<0> SDWARFLOC size=102
	0x0000 ff ff ff ff ff ff ff ff 00 00 00 00 00 00 00 00  ................
	0x0010 00 00 00 00 00 00 00 00 1b 00 00 00 00 00 00 00  ................
	0x0020 01 00 9c 00 00 00 00 00 00 00 00 00 00 00 00 00  ................
	0x0030 00 00 00 ff ff ff ff ff ff ff ff 00 00 00 00 00  ................
	0x0040 00 00 00 00 00 00 00 00 00 00 00 1b 00 00 00 00  ................
	0x0050 00 00 00 01 00 9c 00 00 00 00 00 00 00 00 00 00  ................
	0x0060 00 00 00 00 00 00                                ......
	rel 8+8 t=1 "".LeadingZeros16<1>+0
	rel 59+8 t=1 "".LeadingZeros16<1>+0
aux for "".LeadingZeros16<0> SDWARFLINES size=36
	0x0000 00 09 02 00 00 00 00 00 00 00 00 04 02 03 2a 14  ..............*.
	0x0010 04 03 03 6d 3d 06 2d 04 02 06 03 12 96 06 41 02  ...m=.-.......A.
	0x0020 01 00 01 01                                      ....
	rel 3+8 t=1 "".LeadingZeros16<1>+0
aux for "".LeadingZeros16<0> SDWARFFCN size=124
	0x0000 03 63 6f 6d 6d 61 6e 64 2d 6c 69 6e 65 2d 61 72  .command-line-ar
	0x0010 67 75 6d 65 6e 74 73 2e 4c 65 61 64 69 6e 67 5a  guments.LeadingZ
	0x0020 65 72 6f 73 31 36 00 00 00 00 00 00 00 00 00 00  eros16..........
	0x0030 00 00 00 00 00 00 00 01 9c 02 00 00 00 01 10 6e  ...............n
	0x0040 00 00 2a 00 00 00 00 00 00 00 00 0f 7e 72 31 00  ..*.........~r1.
	0x0050 01 2a 00 00 00 00 00 06 00 00 00 00 00 00 00 00  .*..............
	0x0060 00 00 00 00 00 00 00 00 00 00 00 00 02 00 00 00  ................
	0x0070 30 13 00 00 00 00 00 00 00 00 00 00              0...........
	rel 0+0 t=24 type.int<0>+0
	rel 39+8 t=1 "".LeadingZeros16<1>+0
	rel 47+8 t=1 "".LeadingZeros16<1>+27
	rel 67+4 t=31 go.info.uint16<0>+0
	rel 71+4 t=31 <0>+0
	rel 82+4 t=31 go.info.int<0>+0
	rel 88+4 t=31 go.info.math/bits.LeadingZeros16$abstract<0>+0
	rel 92+8 t=1 "".LeadingZeros16<1>+5
	rel 100+8 t=1 "".LeadingZeros16<1>+21
	rel 114+4 t=31 go.info.math/bits.LeadingZeros16$abstract<0>+28
	rel 118+4 t=31 <0>+51
aux for "".LeadingZeros8<0> SDWARFLOC size=102
	0x0000 ff ff ff ff ff ff ff ff 00 00 00 00 00 00 00 00  ................
	0x0010 00 00 00 00 00 00 00 00 1b 00 00 00 00 00 00 00  ................
	0x0020 01 00 9c 00 00 00 00 00 00 00 00 00 00 00 00 00  ................
	0x0030 00 00 00 ff ff ff ff ff ff ff ff 00 00 00 00 00  ................
	0x0040 00 00 00 00 00 00 00 00 00 00 00 1b 00 00 00 00  ................
	0x0050 00 00 00 01 00 9c 00 00 00 00 00 00 00 00 00 00  ................
	0x0060 00 00 00 00 00 00                                ......
	rel 8+8 t=1 "".LeadingZeros8<1>+0
	rel 59+8 t=1 "".LeadingZeros8<1>+0
aux for "".LeadingZeros8<0> SDWARFLINES size=36
	0x0000 00 09 02 00 00 00 00 00 00 00 00 04 02 03 33 14  ..............3.
	0x0010 04 03 03 61 3d 06 2d 04 02 06 03 1e 96 06 41 02  ...a=.-.......A.
	0x0020 01 00 01 01                                      ....
	rel 3+8 t=1 "".LeadingZeros8<1>+0
aux for "".LeadingZeros8<0> SDWARFFCN size=123
	0x0000 03 63 6f 6d 6d 61 6e 64 2d 6c 69 6e 65 2d 61 72  .command-line-ar
	0x0010 67 75 6d 65 6e 74 73 2e 4c 65 61 64 69 6e 67 5a  guments.LeadingZ
	0x0020 65 72 6f 73 38 00 00 00 00 00 00 00 00 00 00 00  eros8...........
	0x0030 00 00 00 00 00 00 01 9c 02 00 00 00 01 10 6e 00  ..............n.
	0x0040 00 33 00 00 00 00 00 00 00 00 0f 7e 72 31 00 01  .3.........~r1..
	0x0050 33 00 00 00 00 00 06 00 00 00 00 00 00 00 00 00  3...............
	0x0060 00 00 00 00 00 00 00 00 00 00 00 02 00 00 00 39  ...............9
	0x0070 13 00 00 00 00 00 00 00 00 00 00                 ...........
	rel 0+0 t=24 type.int<0>+0
	rel 38+8 t=1 "".LeadingZeros8<1>+0
	rel 46+8 t=1 "".LeadingZeros8<1>+27
	rel 66+4 t=31 go.info.uint8<0>+0
	rel 70+4 t=31 <0>+0
	rel 81+4 t=31 go.info.int<0>+0
	rel 87+4 t=31 go.info.math/bits.LeadingZeros8$abstract<0>+0
	rel 91+8 t=1 "".LeadingZeros8<1>+5
	rel 99+8 t=1 "".LeadingZeros8<1>+21
	rel 113+4 t=31 go.info.math/bits.LeadingZeros8$abstract<0>+27
	rel 117+4 t=31 <0>+51
aux for "".Len<0> SDWARFLOC size=51
	0x0000 ff ff ff ff ff ff ff ff 00 00 00 00 00 00 00 00  ................
	0x0010 00 00 00 00 00 00 00 00 1d 00 00 00 00 00 00 00  ................
	0x0020 01 00 9c 00 00 00 00 00 00 00 00 00 00 00 00 00  ................
	0x0030 00 00 00                                         ...
	rel 8+8 t=1 "".Len<1>+0
aux for "".Len<0> SDWARFLINES size=24
	0x0000 00 09 02 00 00 00 00 00 00 00 00 04 02 03 c0 00  ................
	0x0010 14 06 41 02 18 00 01 01                          ..A.....
	rel 3+8 t=1 "".Len<1>+0
aux for "".Len<0> SDWARFFCN size=77
	0x0000 03 63 6f 6d 6d 61 6e 64 2d 6c 69 6e 65 2d 61 72  .command-line-ar
	0x0010 67 75 6d 65 6e 74 73 2e 4c 65 6e 00 00 00 00 00  guments.Len.....
	0x0020 00 00 00 00 00 00 00 00 00 00 00 00 01 9c 02 00  ................
	0x0030 00 00 01 10 6e 00 00 40 00 00 00 00 00 00 00 00  ....n..@........
	0x0040 0f 7e 72 31 00 01 40 00 00 00 00 00 00           .~r1..@......
	rel 0+0 t=24 type.int<0>+0
	rel 28+8 t=1 "".Len<1>+0
	rel 36+8 t=1 "".Len<1>+29
	rel 56+4 t=31 go.info.uint<0>+0
	rel 60+4 t=31 <0>+0
	rel 71+4 t=31 go.info.int<0>+0
aux for "".Len64<0> SDWARFLOC size=51
	0x0000 ff ff ff ff ff ff ff ff 00 00 00 00 00 00 00 00  ................
	0x0010 00 00 00 00 00 00 00 00 1d 00 00 00 00 00 00 00  ................
	0x0020 01 00 9c 00 00 00 00 00 00 00 00 00 00 00 00 00  ................
	0x0030 00 00 00                                         ...
	rel 8+8 t=1 "".Len64<1>+0
aux for "".Len64<0> SDWARFLINES size=24
	0x0000 00 09 02 00 00 00 00 00 00 00 00 04 02 03 cb 00  ................
	0x0010 14 06 41 02 18 00 01 01                          ..A.....
	rel 3+8 t=1 "".Len64<1>+0
aux for "".Len64<0> SDWARFFCN size=79
	0x0000 03 63 6f 6d 6d 61 6e 64 2d 6c 69 6e 65 2d 61 72  .command-line-ar
	0x0010 67 75 6d 65 6e 74 73 2e 4c 65 6e 36 34 00 00 00  guments.Len64...
	0x0020 00 00 00 00 00 00 00 00 00 00 00 00 00 00 01 9c  ................
	0x0030 02 00 00 00 01 10 6e 00 00 49 00 00 00 00 00 00  ......n..I......
	0x0040 00 00 0f 7e 72 31 00 01 49 00 00 00 00 00 00     ...~r1..I......
	rel 0+0 t=24 type.int<0>+0
	rel 30+8 t=1 "".Len64<1>+0
	rel 38+8 t=1 "".Len64<1>+29
	rel 58+4 t=31 go.info.uint64<0>+0
	rel 62+4 t=31 <0>+0
	rel 73+4 t=31 go.info.int<0>+0
aux for "".SubFromLen64<0> SDWARFLOC size=51
	0x0000 ff ff ff ff ff ff ff ff 00 00 00 00 00 00 00 00  ................
	0x0010 00 00 00 00 00 00 00 00 21 00 00 00 00 00 00 00  ........!.......
	0x0020 01 00 9c 00 00 00 00 00 00 00 00 00 00 00 00 00  ................
	0x0030 00 00 00                                         ...
	rel 8+8 t=1 "".SubFromLen64<1>+0
aux for "".SubFromLen64<0> SDWARFLINES size=24
	0x0000 00 09 02 00 00 00 00 00 00 00 00 04 02 03 d1 00  ................
	0x0010 14 06 41 02 1c 00 01 01                          ..A.....
	rel 3+8 t=1 "".SubFromLen64<1>+0
aux for "".SubFromLen64<0> SDWARFFCN size=86
	0x0000 03 63 6f 6d 6d 61 6e 64 2d 6c 69 6e 65 2d 61 72  .command-line-ar
	0x0010 67 75 6d 65 6e 74 73 2e 53 75 62 46 72 6f 6d 4c  guments.SubFromL
	0x0020 65 6e 36 34 00 00 00 00 00 00 00 00 00 00 00 00  en64............
	0x0030 00 00 00 00 00 01 9c 02 00 00 00 01 10 6e 00 00  .............n..
	0x0040 54 00 00 00 00 00 00 00 00 0f 7e 72 31 00 01 54  T.........~r1..T
	0x0050 00 00 00 00 00 00                                ......
	rel 0+0 t=24 type.int<0>+0
	rel 37+8 t=1 "".SubFromLen64<1>+0
	rel 45+8 t=1 "".SubFromLen64<1>+33
	rel 65+4 t=31 go.info.uint64<0>+0
	rel 69+4 t=31 <0>+0
	rel 80+4 t=31 go.info.int<0>+0
aux for "".Len32<0> SDWARFLOC size=51
	0x0000 ff ff ff ff ff ff ff ff 00 00 00 00 00 00 00 00  ................
	0x0010 00 00 00 00 00 00 00 00 16 00 00 00 00 00 00 00  ................
	0x0020 01 00 9c 00 00 00 00 00 00 00 00 00 00 00 00 00  ................
	0x0030 00 00 00                                         ...
	rel 8+8 t=1 "".Len32<1>+0
aux for "".Len32<0> SDWARFLINES size=24
	0x0000 00 09 02 00 00 00 00 00 00 00 00 04 02 03 da 00  ................
	0x0010 14 06 37 02 12 00 01 01                          ..7.....
	rel 3+8 t=1 "".Len32<1>+0
aux for "".Len32<0> SDWARFFCN size=79
	0x0000 03 63 6f 6d 6d 61 6e 64 2d 6c 69 6e 65 2d 61 72  .command-line-ar
	0x0010 67 75 6d 65 6e 74 73 2e 4c 65 6e 33 32 00 00 00  guments.Len32...
	0x0020 00 00 00 00 00 00 00 00 00 00 00 00 00 00 01 9c  ................
	0x0030 02 00 00 00 01 10 6e 00 00 5a 00 00 00 00 00 00  ......n..Z......
	0x0040 00 00 0f 7e 72 31 00 01 5a 00 00 00 00 00 00     ...~r1..Z......
	rel 0+0 t=24 type.int<0>+0
	rel 30+8 t=1 "".Len32<1>+0
	rel 38+8 t=1 "".Len32<1>+22
	rel 58+4 t=31 go.info.uint32<0>+0
	rel 62+4 t=31 <0>+0
	rel 73+4 t=31 go.info.int<0>+0
aux for "".Len16<0> SDWARFLOC size=51
	0x0000 ff ff ff ff ff ff ff ff 00 00 00 00 00 00 00 00  ................
	0x0010 00 00 00 00 00 00 00 00 14 00 00 00 00 00 00 00  ................
	0x0020 01 00 9c 00 00 00 00 00 00 00 00 00 00 00 00 00  ................
	0x0030 00 00 00                                         ...
	rel 8+8 t=1 "".Len16<1>+0
aux for "".Len16<0> SDWARFLINES size=24
	0x0000 00 09 02 00 00 00 00 00 00 00 00 04 02 03 e3 00  ................
	0x0010 14 06 41 02 0f 00 01 01                          ..A.....
	rel 3+8 t=1 "".Len16<1>+0
aux for "".Len16<0> SDWARFFCN size=79
	0x0000 03 63 6f 6d 6d 61 6e 64 2d 6c 69 6e 65 2d 61 72  .command-line-ar
	0x0010 67 75 6d 65 6e 74 73 2e 4c 65 6e 31 36 00 00 00  guments.Len16...
	0x0020 00 00 00 00 00 00 00 00 00 00 00 00 00 00 01 9c  ................
	0x0030 02 00 00 00 01 10 6e 00 00 63 00 00 00 00 00 00  ......n..c......
	0x0040 00 00 0f 7e 72 31 00 01 63 00 00 00 00 00 00     ...~r1..c......
	rel 0+0 t=24 type.int<0>+0
	rel 30+8 t=1 "".Len16<1>+0
	rel 38+8 t=1 "".Len16<1>+20
	rel 58+4 t=31 go.info.uint16<0>+0
	rel 62+4 t=31 <0>+0
	rel 73+4 t=31 go.info.int<0>+0
aux for "".Len8<0> SDWARFLOC size=51
	0x0000 ff ff ff ff ff ff ff ff 00 00 00 00 00 00 00 00  ................
	0x0010 00 00 00 00 00 00 00 00 14 00 00 00 00 00 00 00  ................
	0x0020 01 00 9c 00 00 00 00 00 00 00 00 00 00 00 00 00  ................
	0x0030 00 00 00                                         ...
	rel 8+8 t=1 "".Len8<1>+0
aux for "".Len8<0> SDWARFLINES size=24
	0x0000 00 09 02 00 00 00 00 00 00 00 00 04 02 03 ec 00  ................
	0x0010 14 06 41 02 0f 00 01 01                          ..A.....
	rel 3+8 t=1 "".Len8<1>+0
aux for "".Len8<0> SDWARFFCN size=78
	0x0000 03 63 6f 6d 6d 61 6e 64 2d 6c 69 6e 65 2d 61 72  .command-line-ar
	0x0010 67 75 6d 65 6e 74 73 2e 4c 65 6e 38 00 00 00 00  guments.Len8....
	0x0020 00 00 00 00 00 00 00 00 00 00 00 00 00 01 9c 02  ................
	0x0030 00 00 00 01 10 6e 00 00 6c 00 00 00 00 00 00 00  .....n..l.......
	0x0040 00 0f 7e 72 31 00 01 6c 00 00 00 00 00 00        ..~r1..l......
	rel 0+0 t=24 type.int<0>+0
	rel 29+8 t=1 "".Len8<1>+0
	rel 37+8 t=1 "".Len8<1>+20
	rel 57+4 t=31 go.info.uint8<0>+0
	rel 61+4 t=31 <0>+0
	rel 72+4 t=31 go.info.int<0>+0
aux for "".OnesCount<0> SDWARFLOC size=51
	0x0000 ff ff ff ff ff ff ff ff 00 00 00 00 00 00 00 00  ................
	0x0010 00 00 00 00 00 00 00 00 5f 00 00 00 00 00 00 00  ........_.......
	0x0020 01 00 9c 00 00 00 00 00 00 00 00 00 00 00 00 00  ................
	0x0030 00 00 00                                         ...
	rel 8+8 t=1 "".OnesCount<1>+0
aux for "".OnesCount<0> SDWARFLINES size=41
	0x0000 00 09 02 00 00 00 00 00 00 00 00 04 02 03 f4 00  ................
	0x0010 14 0a a5 06 9b 06 03 02 82 06 23 06 73 06 41 06  ..........#.s.A.
	0x0020 08 03 7d 51 02 07 00 01 01                       ..}Q.....
	rel 3+8 t=1 "".OnesCount<1>+0
aux for "".OnesCount<0> SDWARFFCN size=83
	0x0000 03 63 6f 6d 6d 61 6e 64 2d 6c 69 6e 65 2d 61 72  .command-line-ar
	0x0010 67 75 6d 65 6e 74 73 2e 4f 6e 65 73 43 6f 75 6e  guments.OnesCoun
	0x0020 74 00 00 00 00 00 00 00 00 00 00 00 00 00 00 00  t...............
	0x0030 00 00 01 9c 02 00 00 00 01 10 6e 00 00 7a 00 00  ..........n..z..
	0x0040 00 00 00 00 00 00 0f 7e 72 31 00 01 7a 00 00 00  .......~r1..z...
	0x0050 00 00 00                                         ...
	rel 0+0 t=24 type.int<0>+0
	rel 34+8 t=1 "".OnesCount<1>+0
	rel 42+8 t=1 "".OnesCount<1>+95
	rel 62+4 t=31 go.info.uint<0>+0
	rel 66+4 t=31 <0>+0
	rel 77+4 t=31 go.info.int<0>+0
aux for "".OnesCount64<0> SDWARFLOC size=51
	0x0000 ff ff ff ff ff ff ff ff 00 00 00 00 00 00 00 00  ................
	0x0010 00 00 00 00 00 00 00 00 5f 00 00 00 00 00 00 00  ........_.......
	0x0020 01 00 9c 00 00 00 00 00 00 00 00 00 00 00 00 00  ................
	0x0030 00 00 00                                         ...
	rel 8+8 t=1 "".OnesCount64<1>+0
aux for "".OnesCount64<0> SDWARFLINES size=41
	0x0000 00 09 02 00 00 00 00 00 00 00 00 04 02 03 ff 00  ................
	0x0010 14 0a a5 06 9b 06 03 02 82 06 23 06 73 06 41 06  ..........#.s.A.
	0x0020 08 03 7d 51 02 07 00 01 01                       ..}Q.....
	rel 3+8 t=1 "".OnesCount64<1>+0
aux for "".OnesCount64<0> SDWARFFCN size=87
	0x0000 03 63 6f 6d 6d 61 6e 64 2d 6c 69 6e 65 2d 61 72  .command-line-ar
	0x0010 67 75 6d 65 6e 74 73 2e 4f 6e 65 73 43 6f 75 6e  guments.OnesCoun
	0x0020 74 36 34 00 00 00 00 00 00 00 00 00 00 00 00 00  t64.............
	0x0030 00 00 00 00 01 9c 02 00 00 00 01 10 6e 00 00 85  ............n...
	0x0040 01 00 00 00 00 00 00 00 00 0f 7e 72 31 00 01 85  ..........~r1...
	0x0050 01 00 00 00 00 00 00                             .......
	rel 0+0 t=24 type.int<0>+0
	rel 36+8 t=1 "".OnesCount64<1>+0
	rel 44+8 t=1 "".OnesCount64<1>+95
	rel 65+4 t=31 go.info.uint64<0>+0
	rel 69+4 t=31 <0>+0
	rel 81+4 t=31 go.info.int<0>+0
aux for "".OnesCount32<0> SDWARFLOC size=51
	0x0000 ff ff ff ff ff ff ff ff 00 00 00 00 00 00 00 00  ................
	0x0010 00 00 00 00 00 00 00 00 5b 00 00 00 00 00 00 00  ........[.......
	0x0020 01 00 9c 00 00 00 00 00 00 00 00 00 00 00 00 00  ................
	0x0030 00 00 00                                         ...
	rel 8+8 t=1 "".OnesCount32<1>+0
aux for "".OnesCount32<0> SDWARFLINES size=41
	0x0000 00 09 02 00 00 00 00 00 00 00 00 04 02 03 8a 01  ................
	0x0010 14 0a a5 06 9b 06 03 02 82 06 23 06 5f 06 41 06  ..........#._.A.
	0x0020 08 03 7d 3d 02 07 00 01 01                       ..}=.....
	rel 3+8 t=1 "".OnesCount32<1>+0
aux for "".OnesCount32<0> SDWARFFCN size=87
	0x0000 03 63 6f 6d 6d 61 6e 64 2d 6c 69 6e 65 2d 61 72  .command-line-ar
	0x0010 67 75 6d 65 6e 74 73 2e 4f 6e 65 73 43 6f 75 6e  guments.OnesCoun
	0x0020 74 33 32 00 00 00 00 00 00 00 00 00 00 00 00 00  t32.............
	0x0030 00 00 00 00 01 9c 02 00 00 00 01 10 6e 00 00 90  ............n...
	0x0040 01 00 00 00 00 00 00 00 00 0f 7e 72 31 00 01 90  ..........~r1...
	0x0050 01 00 00 00 00 00 00                             .......
	rel 0+0 t=24 type.int<0>+0
	rel 36+8 t=1 "".OnesCount32<1>+0
	rel 44+8 t=1 "".OnesCount32<1>+91
	rel 65+4 t=31 go.info.uint32<0>+0
	rel 69+4 t=31 <0>+0
	rel 81+4 t=31 go.info.int<0>+0
aux for "".OnesCount16<0> SDWARFLOC size=51
	0x0000 ff ff ff ff ff ff ff ff 00 00 00 00 00 00 00 00  ................
	0x0010 00 00 00 00 00 00 00 00 5e 00 00 00 00 00 00 00  ........^.......
	0x0020 01 00 9c 00 00 00 00 00 00 00 00 00 00 00 00 00  ................
	0x0030 00 00 00                                         ...
	rel 8+8 t=1 "".OnesCount16<1>+0
aux for "".OnesCount16<0> SDWARFLINES size=41
	0x0000 00 09 02 00 00 00 00 00 00 00 00 04 02 03 95 01  ................
	0x0010 14 0a a5 06 9b 06 03 02 82 06 23 06 69 06 41 06  ..........#.i.A.
	0x0020 08 03 7d 51 02 07 00 01 01                       ..}Q.....
	rel 3+8 t=1 "".OnesCount16<1>+0
aux for "".OnesCount16<0> SDWARFFCN size=87
	0x0000 03 63 6f 6d 6d 61 6e 64 2d 6c 69 6e 65 2d 61 72  .command-line-ar
	0x0010 67 75 6d 65 6e 74 73 2e 4f 6e 65 73 43 6f 75 6e  guments.OnesCoun
	0x0020 74 31 36 00 00 00 00 00 00 00 00 00 00 00 00 00  t16.............
	0x0030 00 00 00 00 01 9c 02 00 00 00 01 10 6e 00 00 9b  ............n...
	0x0040 01 00 00 00 00 00 00 00 00 0f 7e 72 31 00 01 9b  ..........~r1...
	0x0050 01 00 00 00 00 00 00                             .......
	rel 0+0 t=24 type.int<0>+0
	rel 36+8 t=1 "".OnesCount16<1>+0
	rel 44+8 t=1 "".OnesCount16<1>+94
	rel 65+4 t=31 go.info.uint16<0>+0
	rel 69+4 t=31 <0>+0
	rel 81+4 t=31 go.info.int<0>+0
aux for "".OnesCount8<0> SDWARFLOC size=102
	0x0000 ff ff ff ff ff ff ff ff 00 00 00 00 00 00 00 00  ................
	0x0010 00 00 00 00 00 00 00 00 16 00 00 00 00 00 00 00  ................
	0x0020 01 00 9c 00 00 00 00 00 00 00 00 00 00 00 00 00  ................
	0x0030 00 00 00 ff ff ff ff ff ff ff ff 00 00 00 00 00  ................
	0x0040 00 00 00 00 00 00 00 00 00 00 00 16 00 00 00 00  ................
	0x0050 00 00 00 01 00 9c 00 00 00 00 00 00 00 00 00 00  ................
	0x0060 00 00 00 00 00 00                                ......
	rel 8+8 t=1 "".OnesCount8<1>+0
	rel 59+8 t=1 "".OnesCount8<1>+0
aux for "".OnesCount8<0> SDWARFLINES size=37
	0x0000 00 09 02 00 00 00 00 00 00 00 00 04 02 03 a4 01  ................
	0x0010 14 04 03 03 52 3d 06 55 04 02 06 03 2d 3c 06 41  ....R=.U....-<.A
	0x0020 02 01 00 01 01                                   .....
	rel 3+8 t=1 "".OnesCount8<1>+0
aux for "".OnesCount8<0> SDWARFFCN size=123
	0x0000 03 63 6f 6d 6d 61 6e 64 2d 6c 69 6e 65 2d 61 72  .command-line-ar
	0x0010 67 75 6d 65 6e 74 73 2e 4f 6e 65 73 43 6f 75 6e  guments.OnesCoun
	0x0020 74 38 00 00 00 00 00 00 00 00 00 00 00 00 00 00  t8..............
	0x0030 00 00 00 01 9c 02 00 00 00 01 10 6e 00 00 a5 01  ...........n....
	0x0040 00 00 00 00 00 00 00 00 0f 7e 72 31 00 01 a5 01  .........~r1....
	0x0050 00 00 00 00 00 06 00 00 00 00 00 00 00 00 00 00  ................
	0x0060 00 00 00 00 00 00 00 00 00 00 02 00 00 00 aa 01  ................
	0x0070 13 00 00 00 00 00 00 00 00 00 00                 ...........
	rel 0+0 t=24 type.int<0>+0
	rel 35+8 t=1 "".OnesCount8<1>+0
	rel 43+8 t=1 "".OnesCount8<1>+22
	rel 64+4 t=31 go.info.uint8<0>+0
	rel 68+4 t=31 <0>+0
	rel 80+4 t=31 go.info.int<0>+0
	rel 86+4 t=31 go.info.math/bits.OnesCount8$abstract<0>+0
	rel 90+8 t=1 "".OnesCount8<1>+5
	rel 98+8 t=1 "".OnesCount8<1>+16
	rel 113+4 t=31 go.info.math/bits.OnesCount8$abstract<0>+24
	rel 117+4 t=31 <0>+51
aux for "".ReverseBytes<0> SDWARFLOC size=102
	0x0000 ff ff ff ff ff ff ff ff 00 00 00 00 00 00 00 00  ................
	0x0010 00 00 00 00 00 00 00 00 0e 00 00 00 00 00 00 00  ................
	0x0020 01 00 9c 00 00 00 00 00 00 00 00 00 00 00 00 00  ................
	0x0030 00 00 00 ff ff ff ff ff ff ff ff 00 00 00 00 00  ................
	0x0040 00 00 00 00 00 00 00 00 00 00 00 0e 00 00 00 00  ................
	0x0050 00 00 00 01 00 9c 00 00 00 00 00 00 00 00 00 00  ................
	0x0060 00 00 00 00 00 00                                ......
	rel 8+8 t=1 "".ReverseBytes<1>+0
	rel 59+8 t=1 "".ReverseBytes<1>+0
aux for "".ReverseBytes<0> SDWARFLINES size=36
	0x0000 00 09 02 00 00 00 00 00 00 00 00 04 02 03 af 01  ................
	0x0010 14 04 03 03 ce 00 46 04 02 03 b1 7f 29 06 41 02  ......F.....).A.
	0x0020 01 00 01 01                                      ....
	rel 3+8 t=1 "".ReverseBytes<1>+0
aux for "".ReverseBytes<0> SDWARFFCN size=125
	0x0000 03 63 6f 6d 6d 61 6e 64 2d 6c 69 6e 65 2d 61 72  .command-line-ar
	0x0010 67 75 6d 65 6e 74 73 2e 52 65 76 65 72 73 65 42  guments.ReverseB
	0x0020 79 74 65 73 00 00 00 00 00 00 00 00 00 00 00 00  ytes............
	0x0030 00 00 00 00 00 01 9c 02 00 00 00 01 10 6e 00 00  .............n..
	0x0040 b1 01 00 00 00 00 00 00 00 00 0f 7e 72 31 00 01  ...........~r1..
	0x0050 b1 01 00 00 00 00 00 06 00 00 00 00 00 00 00 00  ................
	0x0060 00 00 00 00 00 00 00 00 00 00 00 00 02 00 00 00  ................
	0x0070 b5 01 13 00 00 00 00 00 00 00 00 00 00           .............
	rel 0+0 t=24 type.uint<0>+0
	rel 37+8 t=1 "".ReverseBytes<1>+0
	rel 45+8 t=1 "".ReverseBytes<1>+14
	rel 66+4 t=31 go.info.uint<0>+0
	rel 70+4 t=31 <0>+0
	rel 82+4 t=31 go.info.uint<0>+0
	rel 88+4 t=31 go.info.math/bits.ReverseBytes$abstract<0>+0
	rel 92+8 t=1 "".ReverseBytes<1>+5
	rel 100+8 t=1 "".ReverseBytes<1>+8
	rel 115+4 t=31 go.info.math/bits.ReverseBytes$abstract<0>+26
	rel 119+4 t=31 <0>+51
aux for "".ReverseBytes64<0> SDWARFLOC size=51
	0x0000 ff ff ff ff ff ff ff ff 00 00 00 00 00 00 00 00  ................
	0x0010 00 00 00 00 00 00 00 00 0e 00 00 00 00 00 00 00  ................
	0x0020 01 00 9c 00 00 00 00 00 00 00 00 00 00 00 00 00  ................
	0x0030 00 00 00                                         ...
	rel 8+8 t=1 "".ReverseBytes64<1>+0
aux for "".ReverseBytes64<0> SDWARFLINES size=24
	0x0000 00 09 02 00 00 00 00 00 00 00 00 04 02 03 b6 01  ................
	0x0010 14 06 41 02 09 00 01 01                          ..A.....
	rel 3+8 t=1 "".ReverseBytes64<1>+0
aux for "".ReverseBytes64<0> SDWARFFCN size=90
	0x0000 03 63 6f 6d 6d 61 6e 64 2d 6c 69 6e 65 2d 61 72  .command-line-ar
	0x0010 67 75 6d 65 6e 74 73 2e 52 65 76 65 72 73 65 42  guments.ReverseB
	0x0020 79 74 65 73 36 34 00 00 00 00 00 00 00 00 00 00  ytes64..........
	0x0030 00 00 00 00 00 00 00 01 9c 02 00 00 00 01 10 6e  ...............n
	0x0040 00 00 b8 01 00 00 00 00 00 00 00 00 0f 7e 72 31  .............~r1
	0x0050 00 01 b8 01 00 00 00 00 00 00                    ..........
	rel 0+0 t=24 type.uint64<0>+0
	rel 39+8 t=1 "".ReverseBytes64<1>+0
	rel 47+8 t=1 "".ReverseBytes64<1>+14
	rel 68+4 t=31 go.info.uint64<0>+0
	rel 72+4 t=31 <0>+0
	rel 84+4 t=31 go.info.uint64<0>+0
aux for "".ReverseBytes32<0> SDWARFLOC size=51
	0x0000 ff ff ff ff ff ff ff ff 00 00 00 00 00 00 00 00  ................
	0x0010 00 00 00 00 00 00 00 00 0b 00 00 00 00 00 00 00  ................
	0x0020 01 00 9c 00 00 00 00 00 00 00 00 00 00 00 00 00  ................
	0x0030 00 00 00                                         ...
	rel 8+8 t=1 "".ReverseBytes32<1>+0
aux for "".ReverseBytes32<0> SDWARFLINES size=24
	0x0000 00 09 02 00 00 00 00 00 00 00 00 04 02 03 bd 01  ................
	0x0010 14 06 37 02 07 00 01 01                          ..7.....
	rel 3+8 t=1 "".ReverseBytes32<1>+0
aux for "".ReverseBytes32<0> SDWARFFCN size=90
	0x0000 03 63 6f 6d 6d 61 6e 64 2d 6c 69 6e 65 2d 61 72  .command-line-ar
	0x0010 67 75 6d 65 6e 74 73 2e 52 65 76 65 72 73 65 42  guments.ReverseB
	0x0020 79 74 65 73 33 32 00 00 00 00 00 00 00 00 00 00  ytes32..........
	0x0030 00 00 00 00 00 00 00 01 9c 02 00 00 00 01 10 6e  ...............n
	0x0040 00 00 bf 01 00 00 00 00 00 00 00 00 0f 7e 72 31  .............~r1
	0x0050 00 01 bf 01 00 00 00 00 00 00                    ..........
	rel 0+0 t=24 type.uint32<0>+0
	rel 39+8 t=1 "".ReverseBytes32<1>+0
	rel 47+8 t=1 "".ReverseBytes32<1>+11
	rel 68+4 t=31 go.info.uint32<0>+0
	rel 72+4 t=31 <0>+0
	rel 84+4 t=31 go.info.uint32<0>+0
aux for "".ReverseBytes16<0> SDWARFLOC size=102
	0x0000 ff ff ff ff ff ff ff ff 00 00 00 00 00 00 00 00  ................
	0x0010 00 00 00 00 00 00 00 00 0f 00 00 00 00 00 00 00  ................
	0x0020 01 00 9c 00 00 00 00 00 00 00 00 00 00 00 00 00  ................
	0x0030 00 00 00 ff ff ff ff ff ff ff ff 00 00 00 00 00  ................
	0x0040 00 00 00 00 00 00 00 00 00 00 00 0f 00 00 00 00  ................
	0x0050 00 00 00 01 00 9c 00 00 00 00 00 00 00 00 00 00  ................
	0x0060 00 00 00 00 00 00                                ......
	rel 8+8 t=1 "".ReverseBytes16<1>+0
	rel 59+8 t=1 "".ReverseBytes16<1>+0
aux for "".ReverseBytes16<0> SDWARFLINES size=36
	0x0000 00 09 02 00 00 00 00 00 00 00 00 04 02 03 c6 01  ................
	0x0010 14 04 03 06 03 3e 46 04 02 06 03 41 33 06 41 02  .....>F....A3.A.
	0x0020 01 00 01 01                                      ....
	rel 3+8 t=1 "".ReverseBytes16<1>+0
aux for "".ReverseBytes16<0> SDWARFFCN size=127
	0x0000 03 63 6f 6d 6d 61 6e 64 2d 6c 69 6e 65 2d 61 72  .command-line-ar
	0x0010 67 75 6d 65 6e 74 73 2e 52 65 76 65 72 73 65 42  guments.ReverseB
	0x0020 79 74 65 73 31 36 00 00 00 00 00 00 00 00 00 00  ytes16..........
	0x0030 00 00 00 00 00 00 00 01 9c 02 00 00 00 01 10 6e  ...............n
	0x0040 00 00 c6 01 00 00 00 00 00 00 00 00 0f 7e 72 31  .............~r1
	0x0050 00 01 c6 01 00 00 00 00 00 06 00 00 00 00 00 00  ................
	0x0060 00 00 00 00 00 00 00 00 00 00 00 00 00 00 02 00  ................
	0x0070 00 00 cc 01 13 00 00 00 00 00 00 00 00 00 00     ...............
	rel 0+0 t=24 type.uint16<0>+0
	rel 39+8 t=1 "".ReverseBytes16<1>+0
	rel 47+8 t=1 "".ReverseBytes16<1>+15
	rel 68+4 t=31 go.info.uint16<0>+0
	rel 72+4 t=31 <0>+0
	rel 84+4 t=31 go.info.uint16<0>+0
	rel 90+4 t=31 go.info.math/bits.ReverseBytes16$abstract<0>+0
	rel 94+8 t=1 "".ReverseBytes16<1>+5
	rel 102+8 t=1 "".ReverseBytes16<1>+9
	rel 117+4 t=31 go.info.math/bits.ReverseBytes16$abstract<0>+28
	rel 121+4 t=31 <0>+51
aux for "".RotateLeft64<0> SDWARFLOC size=51
	0x0000 ff ff ff ff ff ff ff ff 00 00 00 00 00 00 00 00  ................
	0x0010 00 00 00 00 00 00 00 00 0f 00 00 00 00 00 00 00  ................
	0x0020 01 00 9c 00 00 00 00 00 00 00 00 00 00 00 00 00  ................
	0x0030 00 00 00                                         ...
	rel 8+8 t=1 "".RotateLeft64<1>+0
aux for "".RotateLeft64<0> SDWARFLINES size=24
	0x0000 00 09 02 00 00 00 00 00 00 00 00 04 02 03 d4 01  ................
	0x0010 14 06 41 02 0a 00 01 01                          ..A.....
	rel 3+8 t=1 "".RotateLeft64<1>+0
aux for "".RotateLeft64<0> SDWARFFCN size=88
	0x0000 03 63 6f 6d 6d 61 6e 64 2d 6c 69 6e 65 2d 61 72  .command-line-ar
	0x0010 67 75 6d 65 6e 74 73 2e 52 6f 74 61 74 65 4c 65  guments.RotateLe
	0x0020 66 74 36 34 00 00 00 00 00 00 00 00 00 00 00 00  ft64............
	0x0030 00 00 00 00 00 01 9c 02 00 00 00 01 10 6e 00 00  .............n..
	0x0040 d3 01 00 00 00 00 00 00 00 00 0f 7e 72 31 00 01  ...........~r1..
	0x0050 d3 01 00 00 00 00 00 00                          ........
	rel 0+0 t=24 type.uint64<0>+0
	rel 37+8 t=1 "".RotateLeft64<1>+0
	rel 45+8 t=1 "".RotateLeft64<1>+15
	rel 66+4 t=31 go.info.uint64<0>+0
	rel 70+4 t=31 <0>+0
	rel 82+4 t=31 go.info.uint64<0>+0
aux for "".RotateLeft32<0> SDWARFLOC size=51
	0x0000 ff ff ff ff ff ff ff ff 00 00 00 00 00 00 00 00  ................
	0x0010 00 00 00 00 00 00 00 00 0c 00 00 00 00 00 00 00  ................
	0x0020 01 00 9c 00 00 00 00 00 00 00 00 00 00 00 00 00  ................
	0x0030 00 00 00                                         ...
	rel 8+8 t=1 "".RotateLeft32<1>+0
aux for "".RotateLeft32<0> SDWARFLINES size=24
	0x0000 00 09 02 00 00 00 00 00 00 00 00 04 02 03 df 01  ................
	0x0010 14 06 37 02 08 00 01 01                          ..7.....
	rel 3+8 t=1 "".RotateLeft32<1>+0
aux for "".RotateLeft32<0> SDWARFFCN size=88
	0x0000 03 63 6f 6d 6d 61 6e 64 2d 6c 69 6e 65 2d 61 72  .command-line-ar
	0x0010 67 75 6d 65 6e 74 73 2e 52 6f 74 61 74 65 4c 65  guments.RotateLe
	0x0020 66 74 33 32 00 00 00 00 00 00 00 00 00 00 00 00  ft32............
	0x0030 00 00 00 00 00 01 9c 02 00 00 00 01 10 6e 00 00  .............n..
	0x0040 dd 01 00 00 00 00 00 00 00 00 0f 7e 72 31 00 01  ...........~r1..
	0x0050 dd 01 00 00 00 00 00 00                          ........
	rel 0+0 t=24 type.uint32<0>+0
	rel 37+8 t=1 "".RotateLeft32<1>+0
	rel 45+8 t=1 "".RotateLeft32<1>+12
	rel 66+4 t=31 go.info.uint32<0>+0
	rel 70+4 t=31 <0>+0
	rel 82+4 t=31 go.info.uint32<0>+0
aux for "".RotateLeft16<0> SDWARFLOC size=51
	0x0000 ff ff ff ff ff ff ff ff 00 00 00 00 00 00 00 00  ................
	0x0010 00 00 00 00 00 00 00 00 0f 00 00 00 00 00 00 00  ................
	0x0020 01 00 9c 00 00 00 00 00 00 00 00 00 00 00 00 00  ................
	0x0030 00 00 00                                         ...
	rel 8+8 t=1 "".RotateLeft16<1>+0
aux for "".RotateLeft16<0> SDWARFLINES size=24
	0x0000 00 09 02 00 00 00 00 00 00 00 00 04 02 03 e4 01  ................
	0x0010 14 06 41 02 0a 00 01 01                          ..A.....
	rel 3+8 t=1 "".RotateLeft16<1>+0
aux for "".RotateLeft16<0> SDWARFFCN size=88
	0x0000 03 63 6f 6d 6d 61 6e 64 2d 6c 69 6e 65 2d 61 72  .command-line-ar
	0x0010 67 75 6d 65 6e 74 73 2e 52 6f 74 61 74 65 4c 65  guments.RotateLe
	0x0020 66 74 31 36 00 00 00 00 00 00 00 00 00 00 00 00  ft16............
	0x0030 00 00 00 00 00 01 9c 02 00 00 00 01 10 6e 00 00  .............n..
	0x0040 e8 01 00 00 00 00 00 00 00 00 0f 7e 72 31 00 01  ...........~r1..
	0x0050 e8 01 00 00 00 00 00 00                          ........
	rel 0+0 t=24 type.uint16<0>+0
	rel 37+8 t=1 "".RotateLeft16<1>+0
	rel 45+8 t=1 "".RotateLeft16<1>+15
	rel 66+4 t=31 go.info.uint16<0>+0
	rel 70+4 t=31 <0>+0
	rel 82+4 t=31 go.info.uint16<0>+0
aux for "".RotateLeft8<0> SDWARFLOC size=51
	0x0000 ff ff ff ff ff ff ff ff 00 00 00 00 00 00 00 00  ................
	0x0010 00 00 00 00 00 00 00 00 0d 00 00 00 00 00 00 00  ................
	0x0020 01 00 9c 00 00 00 00 00 00 00 00 00 00 00 00 00  ................
	0x0030 00 00 00                                         ...
	rel 8+8 t=1 "".RotateLeft8<1>+0
aux for "".RotateLeft8<0> SDWARFLINES size=24
	0x0000 00 09 02 00 00 00 00 00 00 00 00 04 02 03 e9 01  ................
	0x0010 14 06 41 02 08 00 01 01                          ..A.....
	rel 3+8 t=1 "".RotateLeft8<1>+0
aux for "".RotateLeft8<0> SDWARFFCN size=87
	0x0000 03 63 6f 6d 6d 61 6e 64 2d 6c 69 6e 65 2d 61 72  .command-line-ar
	0x0010 67 75 6d 65 6e 74 73 2e 52 6f 74 61 74 65 4c 65  guments.RotateLe
	0x0020 66 74 38 00 00 00 00 00 00 00 00 00 00 00 00 00  ft8.............
	0x0030 00 00 00 00 01 9c 02 00 00 00 01 10 6e 00 00 ed  ............n...
	0x0040 01 00 00 00 00 00 00 00 00 0f 7e 72 31 00 01 ed  ..........~r1...
	0x0050 01 00 00 00 00 00 00                             .......
	rel 0+0 t=24 type.uint8<0>+0
	rel 36+8 t=1 "".RotateLeft8<1>+0
	rel 44+8 t=1 "".RotateLeft8<1>+13
	rel 65+4 t=31 go.info.uint8<0>+0
	rel 69+4 t=31 <0>+0
	rel 81+4 t=31 go.info.uint8<0>+0
aux for "".RotateLeftVariable<0> SDWARFLOC size=103
	0x0000 ff ff ff ff ff ff ff ff 00 00 00 00 00 00 00 00  ................
	0x0010 00 00 00 00 00 00 00 00 13 00 00 00 00 00 00 00  ................
	0x0020 01 00 9c 00 00 00 00 00 00 00 00 00 00 00 00 00  ................
	0x0030 00 00 00 ff ff ff ff ff ff ff ff 00 00 00 00 00  ................
	0x0040 00 00 00 00 00 00 00 00 00 00 00 13 00 00 00 00  ................
	0x0050 00 00 00 02 00 91 08 00 00 00 00 00 00 00 00 00  ................
	0x0060 00 00 00 00 00 00 00                             .......
	rel 8+8 t=1 "".RotateLeftVariable<1>+0
	rel 59+8 t=1 "".RotateLeftVariable<1>+0
aux for "".RotateLeftVariable<0> SDWARFLINES size=24
	0x0000 00 09 02 00 00 00 00 00 00 00 00 04 02 03 f3 01  ................
	0x0010 14 06 41 02 0e 00 01 01                          ..A.....
	rel 3+8 t=1 "".RotateLeftVariable<1>+0
aux for "".RotateLeftVariable<0> SDWARFFCN size=108
	0x0000 03 63 6f 6d 6d 61 6e 64 2d 6c 69 6e 65 2d 61 72  .command-line-ar
	0x0010 67 75 6d 65 6e 74 73 2e 52 6f 74 61 74 65 4c 65  guments.RotateLe
	0x0020 66 74 56 61 72 69 61 62 6c 65 00 00 00 00 00 00  ftVariable......
	0x0030 00 00 00 00 00 00 00 00 00 00 00 01 9c 02 00 00  ................
	0x0040 00 01 10 6e 00 00 f2 01 00 00 00 00 00 00 00 00  ...n............
	0x0050 10 6d 00 00 f2 01 00 00 00 00 00 00 00 00 0f 7e  .m.............~
	0x0060 72 32 00 01 f2 01 00 00 00 00 00 00              r2..........
	rel 0+0 t=24 type.uint<0>+0
	rel 43+8 t=1 "".RotateLeftVariable<1>+0
	rel 51+8 t=1 "".RotateLeftVariable<1>+19
	rel 72+4 t=31 go.info.uint<0>+0
	rel 76+4 t=31 <0>+0
	rel 86+4 t=31 go.info.int<0>+0
	rel 90+4 t=31 <0>+51
	rel 102+4 t=31 go.info.uint<0>+0
aux for "".RotateLeftVariable64<0> SDWARFLOC size=103
	0x0000 ff ff ff ff ff ff ff ff 00 00 00 00 00 00 00 00  ................
	0x0010 00 00 00 00 00 00 00 00 13 00 00 00 00 00 00 00  ................
	0x0020 01 00 9c 00 00 00 00 00 00 00 00 00 00 00 00 00  ................
	0x0030 00 00 00 ff ff ff ff ff ff ff ff 00 00 00 00 00  ................
	0x0040 00 00 00 00 00 00 00 00 00 00 00 13 00 00 00 00  ................
	0x0050 00 00 00 02 00 91 08 00 00 00 00 00 00 00 00 00  ................
	0x0060 00 00 00 00 00 00 00                             .......
	rel 8+8 t=1 "".RotateLeftVariable64<1>+0
	rel 59+8 t=1 "".RotateLeftVariable64<1>+0
aux for "".RotateLeftVariable64<0> SDWARFLINES size=24
	0x0000 00 09 02 00 00 00 00 00 00 00 00 04 02 03 fd 01  ................
	0x0010 14 06 41 02 0e 00 01 01                          ..A.....
	rel 3+8 t=1 "".RotateLeftVariable64<1>+0
aux for "".RotateLeftVariable64<0> SDWARFFCN size=110
	0x0000 03 63 6f 6d 6d 61 6e 64 2d 6c 69 6e 65 2d 61 72  .command-line-ar
	0x0010 67 75 6d 65 6e 74 73 2e 52 6f 74 61 74 65 4c 65  guments.RotateLe
	0x0020 66 74 56 61 72 69 61 62 6c 65 36 34 00 00 00 00  ftVariable64....
	0x0030 00 00 00 00 00 00 00 00 00 00 00 00 00 01 9c 02  ................
	0x0040 00 00 00 01 10 6e 00 00 fc 01 00 00 00 00 00 00  .....n..........
	0x0050 00 00 10 6d 00 00 fc 01 00 00 00 00 00 00 00 00  ...m............
	0x0060 0f 7e 72 32 00 01 fc 01 00 00 00 00 00 00        .~r2..........
	rel 0+0 t=24 type.uint64<0>+0
	rel 45+8 t=1 "".RotateLeftVariable64<1>+0
	rel 53+8 t=1 "".RotateLeftVariable64<1>+19
	rel 74+4 t=31 go.info.uint64<0>+0
	rel 78+4 t=31 <0>+0
	rel 88+4 t=31 go.info.int<0>+0
	rel 92+4 t=31 <0>+51
	rel 104+4 t=31 go.info.uint64<0>+0
aux for "".RotateLeftVariable32<0> SDWARFLOC size=103
	0x0000 ff ff ff ff ff ff ff ff 00 00 00 00 00 00 00 00  ................
	0x0010 00 00 00 00 00 00 00 00 10 00 00 00 00 00 00 00  ................
	0x0020 01 00 9c 00 00 00 00 00 00 00 00 00 00 00 00 00  ................
	0x0030 00 00 00 ff ff ff ff ff ff ff ff 00 00 00 00 00  ................
	0x0040 00 00 00 00 00 00 00 00 00 00 00 10 00 00 00 00  ................
	0x0050 00 00 00 02 00 91 08 00 00 00 00 00 00 00 00 00  ................
	0x0060 00 00 00 00 00 00 00                             .......
	rel 8+8 t=1 "".RotateLeftVariable32<1>+0
	rel 59+8 t=1 "".RotateLeftVariable32<1>+0
aux for "".RotateLeftVariable32<0> SDWARFLINES size=24
	0x0000 00 09 02 00 00 00 00 00 00 00 00 04 02 03 88 02  ................
	0x0010 14 06 41 02 0b 00 01 01                          ..A.....
	rel 3+8 t=1 "".RotateLeftVariable32<1>+0
aux for "".RotateLeftVariable32<0> SDWARFFCN size=110
	0x0000 03 63 6f 6d 6d 61 6e 64 2d 6c 69 6e 65 2d 61 72  .command-line-ar
	0x0010 67 75 6d 65 6e 74 73 2e 52 6f 74 61 74 65 4c 65  guments.RotateLe
	0x0020 66 74 56 61 72 69 61 62 6c 65 33 32 00 00 00 00  ftVariable32....
	0x0030 00 00 00 00 00 00 00 00 00 00 00 00 00 01 9c 02  ................
	0x0040 00 00 00 01 10 6e 00 00 86 02 00 00 00 00 00 00  .....n..........
	0x0050 00 00 10 6d 00 00 86 02 00 00 00 00 00 00 00 00  ...m............
	0x0060 0f 7e 72 32 00 01 86 02 00 00 00 00 00 00        .~r2..........
	rel 0+0 t=24 type.uint32<0>+0
	rel 45+8 t=1 "".RotateLeftVariable32<1>+0
	rel 53+8 t=1 "".RotateLeftVariable32<1>+16
	rel 74+4 t=31 go.info.uint32<0>+0
	rel 78+4 t=31 <0>+0
	rel 88+4 t=31 go.info.int<0>+0
	rel 92+4 t=31 <0>+51
	rel 104+4 t=31 go.info.uint32<0>+0
aux for "".TrailingZeros<0> SDWARFRANGE size=64
	0x0000 ff ff ff ff ff ff ff ff 00 00 00 00 00 00 00 00  ................
	0x0010 00 00 00 00 00 00 00 00 09 00 00 00 00 00 00 00  ................
	0x0020 09 00 00 00 00 00 00 00 12 00 00 00 00 00 00 00  ................
	0x0030 00 00 00 00 00 00 00 00 00 00 00 00 00 00 00 00  ................
	rel 8+8 t=1 "".TrailingZeros<1>+0
aux for "".TrailingZeros<0> SDWARFLOC size=102
	0x0000 ff ff ff ff ff ff ff ff 00 00 00 00 00 00 00 00  ................
	0x0010 00 00 00 00 00 00 00 00 18 00 00 00 00 00 00 00  ................
	0x0020 01 00 9c 00 00 00 00 00 00 00 00 00 00 00 00 00  ................
	0x0030 00 00 00 ff ff ff ff ff ff ff ff 00 00 00 00 00  ................
	0x0040 00 00 00 00 00 00 00 00 00 00 00 18 00 00 00 00  ................
	0x0050 00 00 00 01 00 9c 00 00 00 00 00 00 00 00 00 00  ................
	0x0060 00 00 00 00 00 00                                ......
	rel 8+8 t=1 "".TrailingZeros<1>+0
	rel 59+8 t=1 "".TrailingZeros<1>+0
aux for "".TrailingZeros<0> SDWARFLINES size=32
	0x0000 00 09 02 00 00 00 00 00 00 00 00 04 03 03 33 14  ..............3.
	0x0010 06 41 04 02 06 03 e1 01 96 06 41 02 01 00 01 01  .A........A.....
	rel 3+8 t=1 "".TrailingZeros<1>+0
aux for "".TrailingZeros<0> SDWARFFCN size=114
	0x0000 03 63 6f 6d 6d 61 6e 64 2d 6c 69 6e 65 2d 61 72  .command-line-ar
	0x0010 67 75 6d 65 6e 74 73 2e 54 72 61 69 6c 69 6e 67  guments.Trailing
	0x0020 5a 65 72 6f 73 00 00 00 00 00 00 00 00 00 00 00  Zeros...........
	0x0030 00 00 00 00 00 00 01 9c 02 00 00 00 01 10 6e 00  ..............n.
	0x0040 00 95 02 00 00 00 00 00 00 00 00 0f 7e 72 31 00  ............~r1.
	0x0050 01 95 02 00 00 00 00 00 07 00 00 00 00 00 00 00  ................
	0x0060 00 02 00 00 00 9f 02 13 00 00 00 00 00 00 00 00  ................
	0x0070 00 00                                            ..
	rel 0+0 t=24 type.int<0>+0
	rel 38+8 t=1 "".TrailingZeros<1>+0
	rel 46+8 t=1 "".TrailingZeros<1>+24
	rel 67+4 t=31 go.info.uint<0>+0
	rel 71+4 t=31 <0>+0
	rel 83+4 t=31 go.info.int<0>+0
	rel 89+4 t=31 go.info.math/bits.TrailingZeros$abstract<0>+0
	rel 93+4 t=31 <0>+0
	rel 104+4 t=31 go.info.math/bits.TrailingZeros$abstract<0>+27
	rel 108+4 t=31 <0>+51
aux for "".TrailingZeros64<0> SDWARFLOC size=51
	0x0000 ff ff ff ff ff ff ff ff 00 00 00 00 00 00 00 00  ................
	0x0010 00 00 00 00 00 00 00 00 18 00 00 00 00 00 00 00  ................
	0x0020 01 00 9c 00 00 00 00 00 00 00 00 00 00 00 00 00  ................
	0x0030 00 00 00                                         ...
	rel 8+8 t=1 "".TrailingZeros64<1>+0
aux for "".TrailingZeros64<0> SDWARFLINES size=24
	0x0000 00 09 02 00 00 00 00 00 00 00 00 04 02 03 a5 02  ................
	0x0010 14 06 41 02 13 00 01 01                          ..A.....
	rel 3+8 t=1 "".TrailingZeros64<1>+0
aux for "".TrailingZeros64<0> SDWARFFCN size=91
	0x0000 03 63 6f 6d 6d 61 6e 64 2d 6c 69 6e 65 2d 61 72  .command-line-ar
	0x0010 67 75 6d 65 6e 74 73 2e 54 72 61 69 6c 69 6e 67  guments.Trailing
	0x0020 5a 65 72 6f 73 36 34 00 00 00 00 00 00 00 00 00  Zeros64.........
	0x0030 00 00 00 00 00 00 00 00 01 9c 02 00 00 00 01 10  ................
	0x0040 6e 00 00 a2 02 00 00 00 00 00 00 00 00 0f 7e 72  n.............~r
	0x0050 31 00 01 a2 02 00 00 00 00 00 00                 1..........
	rel 0+0 t=24 type.int<0>+0
	rel 40+8 t=1 "".TrailingZeros64<1>+0
	rel 48+8 t=1 "".TrailingZeros64<1>+24
	rel 69+4 t=31 go.info.uint64<0>+0
	rel 73+4 t=31 <0>+0
	rel 85+4 t=31 go.info.int<0>+0
aux for "".TrailingZeros64Subtract<0> SDWARFLOC size=51
	0x0000 ff ff ff ff ff ff ff ff 00 00 00 00 00 00 00 00  ................
	0x0010 00 00 00 00 00 00 00 00 1e 00 00 00 00 00 00 00  ................
	0x0020 01 00 9c 00 00 00 00 00 00 00 00 00 00 00 00 00  ................
	0x0030 00 00 00                                         ...
	rel 8+8 t=1 "".TrailingZeros64Subtract<1>+0
aux for "".TrailingZeros64Subtract<0> SDWARFLINES size=24
	0x0000 00 09 02 00 00 00 00 00 00 00 00 04 02 03 ab 02  ................
	0x0010 14 06 41 02 19 00 01 01                          ..A.....
	rel 3+8 t=1 "".TrailingZeros64Subtract<1>+0
aux for "".TrailingZeros64Subtract<0> SDWARFFCN size=99
	0x0000 03 63 6f 6d 6d 61 6e 64 2d 6c 69 6e 65 2d 61 72  .command-line-ar
	0x0010 67 75 6d 65 6e 74 73 2e 54 72 61 69 6c 69 6e 67  guments.Trailing
	0x0020 5a 65 72 6f 73 36 34 53 75 62 74 72 61 63 74 00  Zeros64Subtract.
	0x0030 00 00 00 00 00 00 00 00 00 00 00 00 00 00 00 00  ................
	0x0040 01 9c 02 00 00 00 01 10 6e 00 00 ae 02 00 00 00  ........n.......
	0x0050 00 00 00 00 00 0f 7e 72 31 00 01 ae 02 00 00 00  ......~r1.......
	0x0060 00 00 00                                         ...
	rel 0+0 t=24 type.int<0>+0
	rel 48+8 t=1 "".TrailingZeros64Subtract<1>+0
	rel 56+8 t=1 "".TrailingZeros64Subtract<1>+30
	rel 77+4 t=31 go.info.uint64<0>+0
	rel 81+4 t=31 <0>+0
	rel 93+4 t=31 go.info.int<0>+0
aux for "".TrailingZeros32<0> SDWARFLOC size=51
	0x0000 ff ff ff ff ff ff ff ff 00 00 00 00 00 00 00 00  ................
	0x0010 00 00 00 00 00 00 00 00 13 00 00 00 00 00 00 00  ................
	0x0020 01 00 9c 00 00 00 00 00 00 00 00 00 00 00 00 00  ................
	0x0030 00 00 00                                         ...
	rel 8+8 t=1 "".TrailingZeros32<1>+0
aux for "".TrailingZeros32<0> SDWARFLINES size=24
	0x0000 00 09 02 00 00 00 00 00 00 00 00 04 02 03 b8 02  ................
	0x0010 14 06 37 02 0f 00 01 01                          ..7.....
	rel 3+8 t=1 "".TrailingZeros32<1>+0
aux for "".TrailingZeros32<0> SDWARFFCN size=91
	0x0000 03 63 6f 6d 6d 61 6e 64 2d 6c 69 6e 65 2d 61 72  .command-line-ar
	0x0010 67 75 6d 65 6e 74 73 2e 54 72 61 69 6c 69 6e 67  guments.Trailing
	0x0020 5a 65 72 6f 73 33 32 00 00 00 00 00 00 00 00 00  Zeros32.........
	0x0030 00 00 00 00 00 00 00 00 01 9c 02 00 00 00 01 10  ................
	0x0040 6e 00 00 b4 02 00 00 00 00 00 00 00 00 0f 7e 72  n.............~r
	0x0050 31 00 01 b4 02 00 00 00 00 00 00                 1..........
	rel 0+0 t=24 type.int<0>+0
	rel 40+8 t=1 "".TrailingZeros32<1>+0
	rel 48+8 t=1 "".TrailingZeros32<1>+19
	rel 69+4 t=31 go.info.uint32<0>+0
	rel 73+4 t=31 <0>+0
	rel 85+4 t=31 go.info.int<0>+0
aux for "".TrailingZeros16<0> SDWARFLOC size=51
	0x0000 ff ff ff ff ff ff ff ff 00 00 00 00 00 00 00 00  ................
	0x0010 00 00 00 00 00 00 00 00 12 00 00 00 00 00 00 00  ................
	0x0020 01 00 9c 00 00 00 00 00 00 00 00 00 00 00 00 00  ................
	0x0030 00 00 00                                         ...
	rel 8+8 t=1 "".TrailingZeros16<1>+0
aux for "".TrailingZeros16<0> SDWARFLINES size=24
	0x0000 00 09 02 00 00 00 00 00 00 00 00 04 02 03 c6 02  ................
	0x0010 14 06 41 02 0d 00 01 01                          ..A.....
	rel 3+8 t=1 "".TrailingZeros16<1>+0
aux for "".TrailingZeros16<0> SDWARFFCN size=91
	0x0000 03 63 6f 6d 6d 61 6e 64 2d 6c 69 6e 65 2d 61 72  .command-line-ar
	0x0010 67 75 6d 65 6e 74 73 2e 54 72 61 69 6c 69 6e 67  guments.Trailing
	0x0020 5a 65 72 6f 73 31 36 00 00 00 00 00 00 00 00 00  Zeros16.........
	0x0030 00 00 00 00 00 00 00 00 01 9c 02 00 00 00 01 10  ................
	0x0040 6e 00 00 c1 02 00 00 00 00 00 00 00 00 0f 7e 72  n.............~r
	0x0050 31 00 01 c1 02 00 00 00 00 00 00                 1..........
	rel 0+0 t=24 type.int<0>+0
	rel 40+8 t=1 "".TrailingZeros16<1>+0
	rel 48+8 t=1 "".TrailingZeros16<1>+18
	rel 69+4 t=31 go.info.uint16<0>+0
	rel 73+4 t=31 <0>+0
	rel 85+4 t=31 go.info.int<0>+0
aux for "".TrailingZeros8<0> SDWARFLOC size=51
	0x0000 ff ff ff ff ff ff ff ff 00 00 00 00 00 00 00 00  ................
	0x0010 00 00 00 00 00 00 00 00 12 00 00 00 00 00 00 00  ................
	0x0020 01 00 9c 00 00 00 00 00 00 00 00 00 00 00 00 00  ................
	0x0030 00 00 00                                         ...
	rel 8+8 t=1 "".TrailingZeros8<1>+0
aux for "".TrailingZeros8<0> SDWARFLINES size=24
	0x0000 00 09 02 00 00 00 00 00 00 00 00 04 02 03 cf 02  ................
	0x0010 14 06 41 02 0d 00 01 01                          ..A.....
	rel 3+8 t=1 "".TrailingZeros8<1>+0
aux for "".TrailingZeros8<0> SDWARFFCN size=90
	0x0000 03 63 6f 6d 6d 61 6e 64 2d 6c 69 6e 65 2d 61 72  .command-line-ar
	0x0010 67 75 6d 65 6e 74 73 2e 54 72 61 69 6c 69 6e 67  guments.Trailing
	0x0020 5a 65 72 6f 73 38 00 00 00 00 00 00 00 00 00 00  Zeros8..........
	0x0030 00 00 00 00 00 00 00 01 9c 02 00 00 00 01 10 6e  ...............n
	0x0040 00 00 cf 02 00 00 00 00 00 00 00 00 0f 7e 72 31  .............~r1
	0x0050 00 01 cf 02 00 00 00 00 00 00                    ..........
	rel 0+0 t=24 type.int<0>+0
	rel 39+8 t=1 "".TrailingZeros8<1>+0
	rel 47+8 t=1 "".TrailingZeros8<1>+18
	rel 68+4 t=31 go.info.uint8<0>+0
	rel 72+4 t=31 <0>+0
	rel 84+4 t=31 go.info.int<0>+0
aux for "".IterateBits<0> SDWARFLOC size=153
	0x0000 ff ff ff ff ff ff ff ff 00 00 00 00 00 00 00 00  ................
	0x0010 10 00 00 00 00 00 00 00 22 00 00 00 00 00 00 00  ........".......
	0x0020 01 00 52 00 00 00 00 00 00 00 00 00 00 00 00 00  ..R.............
	0x0030 00 00 00 ff ff ff ff ff ff ff ff 00 00 00 00 00  ................
	0x0040 00 00 00 00 00 00 00 00 00 00 00 22 00 00 00 00  ..........."....
	0x0050 00 00 00 01 00 9c 00 00 00 00 00 00 00 00 00 00  ................
	0x0060 00 00 00 00 00 00 ff ff ff ff ff ff ff ff 00 00  ................
	0x0070 00 00 00 00 00 00 17 00 00 00 00 00 00 00 22 00  ..............".
	0x0080 00 00 00 00 00 00 01 00 50 00 00 00 00 00 00 00  ........P.......
	0x0090 00 00 00 00 00 00 00 00 00                       .........
	rel 8+8 t=1 "".IterateBits<1>+0
	rel 59+8 t=1 "".IterateBits<1>+0
	rel 110+8 t=1 "".IterateBits<1>+0
aux for "".IterateBits<0> SDWARFLINES size=48
	0x0000 00 09 02 00 00 00 00 00 00 00 00 04 02 03 d6 02  ................
	0x0010 14 06 41 04 03 06 03 e1 7d 33 04 02 03 a0 02 3c  ..A.....}3.....<
	0x0020 2e 06 37 06 2a 06 2d 06 28 06 41 02 01 00 01 01  ..7.*.-.(.A.....
	rel 3+8 t=1 "".IterateBits<1>+0
aux for "".IterateBits<0> SDWARFFCN size=137
	0x0000 03 63 6f 6d 6d 61 6e 64 2d 6c 69 6e 65 2d 61 72  .command-line-ar
	0x0010 67 75 6d 65 6e 74 73 2e 49 74 65 72 61 74 65 42  guments.IterateB
	0x0020 69 74 73 00 00 00 00 00 00 00 00 00 00 00 00 00  its.............
	0x0030 00 00 00 00 01 9c 02 00 00 00 01 0b 69 00 db 02  ............i...
	0x0040 00 00 00 00 00 00 00 00 10 6e 00 00 da 02 00 00  .........n......
	0x0050 00 00 00 00 00 00 0f 7e 72 31 00 01 da 02 00 00  .......~r1......
	0x0060 00 00 00 06 00 00 00 00 00 00 00 00 00 00 00 00  ................
	0x0070 00 00 00 00 00 00 00 00 02 00 00 00 de 02 13 00  ................
	0x0080 00 00 00 00 00 00 00 00 00                       .........
	rel 0+0 t=24 type.int<0>+0
	rel 36+8 t=1 "".IterateBits<1>+0
	rel 44+8 t=1 "".IterateBits<1>+34
	rel 64+4 t=31 go.info.int<0>+0
	rel 68+4 t=31 <0>+0
	rel 78+4 t=31 go.info.uint<0>+0
	rel 82+4 t=31 <0>+51
	rel 94+4 t=31 go.info.int<0>+0
	rel 100+4 t=31 go.info.math/bits.TrailingZeros$abstract<0>+0
	rel 104+8 t=1 "".IterateBits<1>+9
	rel 112+8 t=1 "".IterateBits<1>+13
	rel 127+4 t=31 go.info.math/bits.TrailingZeros$abstract<0>+27
	rel 131+4 t=31 <0>+102
aux for "".IterateBits64<0> SDWARFLOC size=102
	0x0000 ff ff ff ff ff ff ff ff 00 00 00 00 00 00 00 00  ................
	0x0010 10 00 00 00 00 00 00 00 22 00 00 00 00 00 00 00  ........".......
	0x0020 01 00 52 00 00 00 00 00 00 00 00 00 00 00 00 00  ..R.............
	0x0030 00 00 00 ff ff ff ff ff ff ff ff 00 00 00 00 00  ................
	0x0040 00 00 00 00 00 00 00 00 00 00 00 22 00 00 00 00  ..........."....
	0x0050 00 00 00 01 00 9c 00 00 00 00 00 00 00 00 00 00  ................
	0x0060 00 00 00 00 00 00                                ......
	rel 8+8 t=1 "".IterateBits64<1>+0
	rel 59+8 t=1 "".IterateBits64<1>+0
aux for "".IterateBits64<0> SDWARFLINES size=40
	0x0000 00 09 02 00 00 00 00 00 00 00 00 04 02 03 e0 02  ................
	0x0010 14 06 41 06 39 06 37 06 2e 06 37 06 2a 06 2d 06  ..A.9.7...7.*.-.
	0x0020 28 06 41 02 01 00 01 01                          (.A.....
	rel 3+8 t=1 "".IterateBits64<1>+0
aux for "".IterateBits64<0> SDWARFFCN size=102
	0x0000 03 63 6f 6d 6d 61 6e 64 2d 6c 69 6e 65 2d 61 72  .command-line-ar
	0x0010 67 75 6d 65 6e 74 73 2e 49 74 65 72 61 74 65 42  guments.IterateB
	0x0020 69 74 73 36 34 00 00 00 00 00 00 00 00 00 00 00  its64...........
	0x0030 00 00 00 00 00 00 01 9c 02 00 00 00 01 0b 69 00  ..............i.
	0x0040 e5 02 00 00 00 00 00 00 00 00 10 6e 00 00 e4 02  ...........n....
	0x0050 00 00 00 00 00 00 00 00 0f 7e 72 31 00 01 e4 02  .........~r1....
	0x0060 00 00 00 00 00 00                                ......
	rel 0+0 t=24 type.int<0>+0
	rel 38+8 t=1 "".IterateBits64<1>+0
	rel 46+8 t=1 "".IterateBits64<1>+34
	rel 66+4 t=31 go.info.int<0>+0
	rel 70+4 t=31 <0>+0
	rel 80+4 t=31 go.info.uint64<0>+0
	rel 84+4 t=31 <0>+51
	rel 96+4 t=31 go.info.int<0>+0
aux for "".IterateBits32<0> SDWARFLOC size=102
	0x0000 ff ff ff ff ff ff ff ff 00 00 00 00 00 00 00 00  ................
	0x0010 0e 00 00 00 00 00 00 00 1d 00 00 00 00 00 00 00  ................
	0x0020 01 00 52 00 00 00 00 00 00 00 00 00 00 00 00 00  ..R.............
	0x0030 00 00 00 ff ff ff ff ff ff ff ff 00 00 00 00 00  ................
	0x0040 00 00 00 00 00 00 00 00 00 00 00 1d 00 00 00 00  ................
	0x0050 00 00 00 01 00 9c 00 00 00 00 00 00 00 00 00 00  ................
	0x0060 00 00 00 00 00 00                                ......
	rel 8+8 t=1 "".IterateBits32<1>+0
	rel 59+8 t=1 "".IterateBits32<1>+0
aux for "".IterateBits32<0> SDWARFLINES size=40
	0x0000 00 09 02 00 00 00 00 00 00 00 00 04 02 03 ea 02  ................
	0x0010 14 06 37 06 39 06 2d 06 2e 06 2d 06 20 06 23 06  ..7.9.-...-. .#.
	0x0020 28 06 41 02 01 00 01 01                          (.A.....
	rel 3+8 t=1 "".IterateBits32<1>+0
aux for "".IterateBits32<0> SDWARFFCN size=102
	0x0000 03 63 6f 6d 6d 61 6e 64 2d 6c 69 6e 65 2d 61 72  .command-line-ar
	0x0010 67 75 6d 65 6e 74 73 2e 49 74 65 72 61 74 65 42  guments.IterateB
	0x0020 69 74 73 33 32 00 00 00 00 00 00 00 00 00 00 00  its32...........
	0x0030 00 00 00 00 00 00 01 9c 02 00 00 00 01 0b 69 00  ..............i.
	0x0040 ef 02 00 00 00 00 00 00 00 00 10 6e 00 00 ee 02  ...........n....
	0x0050 00 00 00 00 00 00 00 00 0f 7e 72 31 00 01 ee 02  .........~r1....
	0x0060 00 00 00 00 00 00                                ......
	rel 0+0 t=24 type.int<0>+0
	rel 38+8 t=1 "".IterateBits32<1>+0
	rel 46+8 t=1 "".IterateBits32<1>+29
	rel 66+4 t=31 go.info.int<0>+0
	rel 70+4 t=31 <0>+0
	rel 80+4 t=31 go.info.uint32<0>+0
	rel 84+4 t=31 <0>+51
	rel 96+4 t=31 go.info.int<0>+0
aux for "".IterateBits16<0> SDWARFLOC size=102
	0x0000 ff ff ff ff ff ff ff ff 00 00 00 00 00 00 00 00  ................
	0x0010 0f 00 00 00 00 00 00 00 1f 00 00 00 00 00 00 00  ................
	0x0020 01 00 52 00 00 00 00 00 00 00 00 00 00 00 00 00  ..R.............
	0x0030 00 00 00 ff ff ff ff ff ff ff ff 00 00 00 00 00  ................
	0x0040 00 00 00 00 00 00 00 00 00 00 00 1f 00 00 00 00  ................
	0x0050 00 00 00 01 00 9c 00 00 00 00 00 00 00 00 00 00  ................
	0x0060 00 00 00 00 00 00                                ......
	rel 8+8 t=1 "".IterateBits16<1>+0
	rel 59+8 t=1 "".IterateBits16<1>+0
aux for "".IterateBits16<0> SDWARFLINES size=42
	0x0000 00 09 02 00 00 00 00 00 00 00 00 04 02 03 f4 02  ................
	0x0010 14 06 41 06 3a 06 2d 06 2e 06 2d 06 1f 06 2d 06  ..A.:.-...-...-.
	0x0020 03 01 28 06 41 02 01 00 01 01                    ..(.A.....
	rel 3+8 t=1 "".IterateBits16<1>+0
aux for "".IterateBits16<0> SDWARFFCN size=102
	0x0000 03 63 6f 6d 6d 61 6e 64 2d 6c 69 6e 65 2d 61 72  .command-line-ar
	0x0010 67 75 6d 65 6e 74 73 2e 49 74 65 72 61 74 65 42  guments.IterateB
	0x0020 69 74 73 31 36 00 00 00 00 00 00 00 00 00 00 00  its16...........
	0x0030 00 00 00 00 00 00 01 9c 02 00 00 00 01 0b 69 00  ..............i.
	0x0040 f9 02 00 00 00 00 00 00 00 00 10 6e 00 00 f8 02  ...........n....
	0x0050 00 00 00 00 00 00 00 00 0f 7e 72 31 00 01 f8 02  .........~r1....
	0x0060 00 00 00 00 00 00                                ......
	rel 0+0 t=24 type.int<0>+0
	rel 38+8 t=1 "".IterateBits16<1>+0
	rel 46+8 t=1 "".IterateBits16<1>+31
	rel 66+4 t=31 go.info.int<0>+0
	rel 70+4 t=31 <0>+0
	rel 80+4 t=31 go.info.uint16<0>+0
	rel 84+4 t=31 <0>+51
	rel 96+4 t=31 go.info.int<0>+0
aux for "".IterateBits8<0> SDWARFLOC size=102
	0x0000 ff ff ff ff ff ff ff ff 00 00 00 00 00 00 00 00  ................
	0x0010 0f 00 00 00 00 00 00 00 1e 00 00 00 00 00 00 00  ................
	0x0020 01 00 52 00 00 00 00 00 00 00 00 00 00 00 00 00  ..R.............
	0x0030 00 00 00 ff ff ff ff ff ff ff ff 00 00 00 00 00  ................
	0x0040 00 00 00 00 00 00 00 00 00 00 00 1e 00 00 00 00  ................
	0x0050 00 00 00 01 00 9c 00 00 00 00 00 00 00 00 00 00  ................
	0x0060 00 00 00 00 00 00                                ......
	rel 8+8 t=1 "".IterateBits8<1>+0
	rel 59+8 t=1 "".IterateBits8<1>+0
aux for "".IterateBits8<0> SDWARFLINES size=42
	0x0000 00 09 02 00 00 00 00 00 00 00 00 04 02 03 ff 02  ................
	0x0010 14 06 41 06 3a 06 2d 06 2e 06 2d 06 1f 06 23 06  ..A.:.-...-...#.
	0x0020 03 01 28 06 41 02 01 00 01 01                    ..(.A.....
	rel 3+8 t=1 "".IterateBits8<1>+0
aux for "".IterateBits8<0> SDWARFFCN size=101
	0x0000 03 63 6f 6d 6d 61 6e 64 2d 6c 69 6e 65 2d 61 72  .command-line-ar
	0x0010 67 75 6d 65 6e 74 73 2e 49 74 65 72 61 74 65 42  guments.IterateB
	0x0020 69 74 73 38 00 00 00 00 00 00 00 00 00 00 00 00  its8............
	0x0030 00 00 00 00 00 01 9c 02 00 00 00 01 0b 69 00 84  .............i..
	0x0040 03 00 00 00 00 00 00 00 00 10 6e 00 00 83 03 00  ..........n.....
	0x0050 00 00 00 00 00 00 00 0f 7e 72 31 00 01 83 03 00  ........~r1.....
	0x0060 00 00 00 00 00                                   .....
	rel 0+0 t=24 type.int<0>+0
	rel 37+8 t=1 "".IterateBits8<1>+0
	rel 45+8 t=1 "".IterateBits8<1>+30
	rel 65+4 t=31 go.info.int<0>+0
	rel 69+4 t=31 <0>+0
	rel 79+4 t=31 go.info.uint8<0>+0
	rel 83+4 t=31 <0>+51
	rel 95+4 t=31 go.info.int<0>+0
aux for "".Add<0> SDWARFLOC size=259
	0x0000 ff ff ff ff ff ff ff ff 00 00 00 00 00 00 00 00  ................
	0x0010 00 00 00 00 00 00 00 00 25 00 00 00 00 00 00 00  ........%.......
	0x0020 01 00 9c 00 00 00 00 00 00 00 00 00 00 00 00 00  ................
	0x0030 00 00 00 ff ff ff ff ff ff ff ff 00 00 00 00 00  ................
	0x0040 00 00 00 00 00 00 00 00 00 00 00 25 00 00 00 00  ...........%....
	0x0050 00 00 00 02 00 91 08 00 00 00 00 00 00 00 00 00  ................
	0x0060 00 00 00 00 00 00 00 ff ff ff ff ff ff ff ff 00  ................
	0x0070 00 00 00 00 00 00 00 00 00 00 00 00 00 00 00 25  ...............%
	0x0080 00 00 00 00 00 00 00 02 00 91 10 00 00 00 00 00  ................
	0x0090 00 00 00 00 00 00 00 00 00 00 00 ff ff ff ff ff  ................
	0x00a0 ff ff ff 00 00 00 00 00 00 00 00 19 00 00 00 00  ................
	0x00b0 00 00 00 25 00 00 00 00 00 00 00 02 00 91 18 00  ...%............
	0x00c0 00 00 00 00 00 00 00 00 00 00 00 00 00 00 00 ff  ................
	0x00d0 ff ff ff ff ff ff ff 00 00 00 00 00 00 00 00 1c  ................
	0x00e0 00 00 00 00 00 00 00 25 00 00 00 00 00 00 00 02  .......%........
	0x00f0 00 91 20 00 00 00 00 00 00 00 00 00 00 00 00 00  .. .............
	0x0100 00 00 00                                         ...
	rel 8+8 t=1 "".Add<1>+0
	rel 59+8 t=1 "".Add<1>+0
	rel 111+8 t=1 "".Add<1>+0
	rel 163+8 t=1 "".Add<1>+0
	rel 215+8 t=1 "".Add<1>+0
aux for "".Add<0> SDWARFLINES size=24
	0x0000 00 09 02 00 00 00 00 00 00 00 00 04 02 03 90 03  ................
	0x0010 14 06 41 02 20 00 01 01                          ..A. ...
	rel 3+8 t=1 "".Add<1>+0
aux for "".Add<0> SDWARFFCN size=124
	0x0000 03 63 6f 6d 6d 61 6e 64 2d 6c 69 6e 65 2d 61 72  .command-line-ar
	0x0010 67 75 6d 65 6e 74 73 2e 41 64 64 00 00 00 00 00  guments.Add.....
	0x0020 00 00 00 00 00 00 00 00 00 00 00 00 01 9c 02 00  ................
	0x0030 00 00 01 10 78 00 00 92 03 00 00 00 00 00 00 00  ....x...........
	0x0040 00 10 79 00 00 92 03 00 00 00 00 00 00 00 00 10  ..y.............
	0x0050 63 69 00 00 92 03 00 00 00 00 00 00 00 00 10 72  ci.............r
	0x0060 00 01 92 03 00 00 00 00 00 00 00 00 10 63 6f 00  .............co.
	0x0070 01 92 03 00 00 00 00 00 00 00 00 00              ............
	rel 28+8 t=1 "".Add<1>+0
	rel 36+8 t=1 "".Add<1>+37
	rel 57+4 t=31 go.info.uint<0>+0
	rel 61+4 t=31 <0>+0
	rel 71+4 t=31 go.info.uint<0>+0
	rel 75+4 t=31 <0>+51
	rel 86+4 t=31 go.info.uint<0>+0
	rel 90+4 t=31 <0>+103
	rel 100+4 t=31 go.info.uint<0>+0
	rel 104+4 t=31 <0>+155
	rel 115+4 t=31 go.info.uint<0>+0
	rel 119+4 t=31 <0>+207
aux for "".AddC<0> SDWARFLOC size=207
	0x0000 ff ff ff ff ff ff ff ff 00 00 00 00 00 00 00 00  ................
	0x0010 00 00 00 00 00 00 00 00 21 00 00 00 00 00 00 00  ........!.......
	0x0020 01 00 9c 00 00 00 00 00 00 00 00 00 00 00 00 00  ................
	0x0030 00 00 00 ff ff ff ff ff ff ff ff 00 00 00 00 00  ................
	0x0040 00 00 00 00 00 00 00 00 00 00 00 21 00 00 00 00  ...........!....
	0x0050 00 00 00 02 00 91 08 00 00 00 00 00 00 00 00 00  ................
	0x0060 00 00 00 00 00 00 00 ff ff ff ff ff ff ff ff 00  ................
	0x0070 00 00 00 00 00 00 00 15 00 00 00 00 00 00 00 21  ...............!
	0x0080 00 00 00 00 00 00 00 02 00 91 10 00 00 00 00 00  ................
	0x0090 00 00 00 00 00 00 00 00 00 00 00 ff ff ff ff ff  ................
	0x00a0 ff ff ff 00 00 00 00 00 00 00 00 18 00 00 00 00  ................
	0x00b0 00 00 00 21 00 00 00 00 00 00 00 02 00 91 18 00  ...!............
	0x00c0 00 00 00 00 00 00 00 00 00 00 00 00 00 00 00     ...............
	rel 8+8 t=1 "".AddC<1>+0
	rel 59+8 t=1 "".AddC<1>+0
	rel 111+8 t=1 "".AddC<1>+0
	rel 163+8 t=1 "".AddC<1>+0
aux for "".AddC<0> SDWARFLINES size=24
	0x0000 00 09 02 00 00 00 00 00 00 00 00 04 02 03 97 03  ................
	0x0010 14 06 41 02 1c 00 01 01                          ..A.....
	rel 3+8 t=1 "".AddC<1>+0
aux for "".AddC<0> SDWARFFCN size=111
	0x0000 03 63 6f 6d 6d 61 6e 64 2d 6c 69 6e 65 2d 61 72  .command-line-ar
	0x0010 67 75 6d 65 6e 74 73 2e 41 64 64 43 00 00 00 00  guments.AddC....
	0x0020 00 00 00 00 00 00 00 00 00 00 00 00 00 01 9c 02  ................
	0x0030 00 00 00 01 10 78 00 00 99 03 00 00 00 00 00 00  .....x..........
	0x0040 00 00 10 63 69 00 00 99 03 00 00 00 00 00 00 00  ...ci...........
	0x0050 00 10 72 00 01 99 03 00 00 00 00 00 00 00 00 10  ..r.............
	0x0060 63 6f 00 01 99 03 00 00 00 00 00 00 00 00 00     co.............
	rel 29+8 t=1 "".AddC<1>+0
	rel 37+8 t=1 "".AddC<1>+33
	rel 58+4 t=31 go.info.uint<0>+0
	rel 62+4 t=31 <0>+0
	rel 73+4 t=31 go.info.uint<0>+0
	rel 77+4 t=31 <0>+51
	rel 87+4 t=31 go.info.uint<0>+0
	rel 91+4 t=31 <0>+103
	rel 102+4 t=31 go.info.uint<0>+0
	rel 106+4 t=31 <0>+155
aux for "".AddZ<0> SDWARFLOC size=207
	0x0000 ff ff ff ff ff ff ff ff 00 00 00 00 00 00 00 00  ................
	0x0010 00 00 00 00 00 00 00 00 1e 00 00 00 00 00 00 00  ................
	0x0020 01 00 9c 00 00 00 00 00 00 00 00 00 00 00 00 00  ................
	0x0030 00 00 00 ff ff ff ff ff ff ff ff 00 00 00 00 00  ................
	0x0040 00 00 00 00 00 00 00 00 00 00 00 1e 00 00 00 00  ................
	0x0050 00 00 00 02 00 91 08 00 00 00 00 00 00 00 00 00  ................
	0x0060 00 00 00 00 00 00 00 ff ff ff ff ff ff ff ff 00  ................
	0x0070 00 00 00 00 00 00 00 12 00 00 00 00 00 00 00 1e  ................
	0x0080 00 00 00 00 00 00 00 02 00 91 10 00 00 00 00 00  ................
	0x0090 00 00 00 00 00 00 00 00 00 00 00 ff ff ff ff ff  ................
	0x00a0 ff ff ff 00 00 00 00 00 00 00 00 15 00 00 00 00  ................
	0x00b0 00 00 00 1e 00 00 00 00 00 00 00 02 00 91 18 00  ................
	0x00c0 00 00 00 00 00 00 00 00 00 00 00 00 00 00 00     ...............
	rel 8+8 t=1 "".AddZ<1>+0
	rel 59+8 t=1 "".AddZ<1>+0
	rel 111+8 t=1 "".AddZ<1>+0
	rel 163+8 t=1 "".AddZ<1>+0
aux for "".AddZ<0> SDWARFLINES size=24
	0x0000 00 09 02 00 00 00 00 00 00 00 00 04 02 03 9e 03  ................
	0x0010 14 06 41 02 19 00 01 01                          ..A.....
	rel 3+8 t=1 "".AddZ<1>+0
aux for "".AddZ<0> SDWARFFCN size=110
	0x0000 03 63 6f 6d 6d 61 6e 64 2d 6c 69 6e 65 2d 61 72  .command-line-ar
	0x0010 67 75 6d 65 6e 74 73 2e 41 64 64 5a 00 00 00 00  guments.AddZ....
	0x0020 00 00 00 00 00 00 00 00 00 00 00 00 00 01 9c 02  ................
	0x0030 00 00 00 01 10 78 00 00 a0 03 00 00 00 00 00 00  .....x..........
	0x0040 00 00 10 79 00 00 a0 03 00 00 00 00 00 00 00 00  ...y............
	0x0050 10 72 00 01 a0 03 00 00 00 00 00 00 00 00 10 63  .r.............c
	0x0060 6f 00 01 a0 03 00 00 00 00 00 00 00 00 00        o.............
	rel 29+8 t=1 "".AddZ<1>+0
	rel 37+8 t=1 "".AddZ<1>+30
	rel 58+4 t=31 go.info.uint<0>+0
	rel 62+4 t=31 <0>+0
	rel 72+4 t=31 go.info.uint<0>+0
	rel 76+4 t=31 <0>+51
	rel 86+4 t=31 go.info.uint<0>+0
	rel 90+4 t=31 <0>+103
	rel 101+4 t=31 go.info.uint<0>+0
	rel 105+4 t=31 <0>+155
aux for "".AddR<0> SDWARFLOC size=206
	0x0000 ff ff ff ff ff ff ff ff 00 00 00 00 00 00 00 00  ................
	0x0010 19 00 00 00 00 00 00 00 1a 00 00 00 00 00 00 00  ................
	0x0020 01 00 50 00 00 00 00 00 00 00 00 00 00 00 00 00  ..P.............
	0x0030 00 00 00 ff ff ff ff ff ff ff ff 00 00 00 00 00  ................
	0x0040 00 00 00 00 00 00 00 00 00 00 00 1a 00 00 00 00  ................
	0x0050 00 00 00 01 00 9c 00 00 00 00 00 00 00 00 00 00  ................
	0x0060 00 00 00 00 00 00 ff ff ff ff ff ff ff ff 00 00  ................
	0x0070 00 00 00 00 00 00 00 00 00 00 00 00 00 00 1a 00  ................
	0x0080 00 00 00 00 00 00 02 00 91 08 00 00 00 00 00 00  ................
	0x0090 00 00 00 00 00 00 00 00 00 00 ff ff ff ff ff ff  ................
	0x00a0 ff ff 00 00 00 00 00 00 00 00 00 00 00 00 00 00  ................
	0x00b0 00 00 1a 00 00 00 00 00 00 00 02 00 91 10 00 00  ................
	0x00c0 00 00 00 00 00 00 00 00 00 00 00 00 00 00        ..............
	rel 8+8 t=1 "".AddR<1>+0
	rel 59+8 t=1 "".AddR<1>+0
	rel 110+8 t=1 "".AddR<1>+0
	rel 162+8 t=1 "".AddR<1>+0
aux for "".AddR<0> SDWARFLINES size=28
	0x0000 00 09 02 00 00 00 00 00 00 00 00 04 02 03 a5 03  ................
	0x0010 14 06 41 06 a6 06 41 02 01 00 01 01              ..A...A.....
	rel 3+8 t=1 "".AddR<1>+0
aux for "".AddR<0> SDWARFFCN size=122
	0x0000 03 63 6f 6d 6d 61 6e 64 2d 6c 69 6e 65 2d 61 72  .command-line-ar
	0x0010 67 75 6d 65 6e 74 73 2e 41 64 64 52 00 00 00 00  guments.AddR....
	0x0020 00 00 00 00 00 00 00 00 00 00 00 00 00 01 9c 02  ................
	0x0030 00 00 00 01 0b 72 00 ab 03 00 00 00 00 00 00 00  .....r..........
	0x0040 00 10 78 00 00 a7 03 00 00 00 00 00 00 00 00 10  ..x.............
	0x0050 79 00 00 a7 03 00 00 00 00 00 00 00 00 10 63 69  y.............ci
	0x0060 00 00 a7 03 00 00 00 00 00 00 00 00 0f 7e 72 33  .............~r3
	0x0070 00 01 a7 03 00 00 00 00 00 00                    ..........
	rel 0+0 t=24 type.uint<0>+0
	rel 29+8 t=1 "".AddR<1>+0
	rel 37+8 t=1 "".AddR<1>+26
	rel 57+4 t=31 go.info.uint<0>+0
	rel 61+4 t=31 <0>+0
	rel 71+4 t=31 go.info.uint<0>+0
	rel 75+4 t=31 <0>+51
	rel 85+4 t=31 go.info.uint<0>+0
	rel 89+4 t=31 <0>+102
	rel 100+4 t=31 go.info.uint<0>+0
	rel 104+4 t=31 <0>+154
	rel 116+4 t=31 go.info.uint<0>+0
aux for "".AddM<0> SDWARFLOC size=155
	0x0000 ff ff ff ff ff ff ff ff 00 00 00 00 00 00 00 00  ................
	0x0010 00 00 00 00 00 00 00 00 3a 00 00 00 00 00 00 00  ........:.......
	0x0020 01 00 9c 00 00 00 00 00 00 00 00 00 00 00 00 00  ................
	0x0030 00 00 00 ff ff ff ff ff ff ff ff 00 00 00 00 00  ................
	0x0040 00 00 00 00 00 00 00 00 00 00 00 3a 00 00 00 00  ...........:....
	0x0050 00 00 00 02 00 91 08 00 00 00 00 00 00 00 00 00  ................
	0x0060 00 00 00 00 00 00 00 ff ff ff ff ff ff ff ff 00  ................
	0x0070 00 00 00 00 00 00 00 00 00 00 00 00 00 00 00 3a  ...............:
	0x0080 00 00 00 00 00 00 00 02 00 91 10 00 00 00 00 00  ................
	0x0090 00 00 00 00 00 00 00 00 00 00 00                 ...........
	rel 8+8 t=1 "".AddM<1>+0
	rel 59+8 t=1 "".AddM<1>+0
	rel 111+8 t=1 "".AddM<1>+0
aux for "".AddM<0> SDWARFLINES size=34
	0x0000 00 09 02 00 00 00 00 00 00 00 00 04 02 03 ab 03  ................
	0x0010 14 06 41 06 ef 06 37 06 7e 06 37 06 7e 02 01 00  ..A...7.~.7.~...
	0x0020 01 01                                            ..
	rel 3+8 t=1 "".AddM<1>+0
aux for "".AddM<0> SDWARFFCN size=95
	0x0000 03 63 6f 6d 6d 61 6e 64 2d 6c 69 6e 65 2d 61 72  .command-line-ar
	0x0010 67 75 6d 65 6e 74 73 2e 41 64 64 4d 00 00 00 00  guments.AddM....
	0x0020 00 00 00 00 00 00 00 00 00 00 00 00 00 01 9c 02  ................
	0x0030 00 00 00 01 10 70 00 00 af 03 00 00 00 00 00 00  .....p..........
	0x0040 00 00 10 71 00 00 af 03 00 00 00 00 00 00 00 00  ...q............
	0x0050 10 72 00 00 af 03 00 00 00 00 00 00 00 00 00     .r.............
	rel 29+8 t=1 "".AddM<1>+0
	rel 37+8 t=1 "".AddM<1>+58
	rel 58+4 t=31 go.info.*[3]uint<0>+0
	rel 62+4 t=31 <0>+0
	rel 72+4 t=31 go.info.*[3]uint<0>+0
	rel 76+4 t=31 <0>+51
	rel 86+4 t=31 go.info.*[3]uint<0>+0
	rel 90+4 t=31 <0>+103
aux for "".Add64<0> SDWARFLOC size=259
	0x0000 ff ff ff ff ff ff ff ff 00 00 00 00 00 00 00 00  ................
	0x0010 00 00 00 00 00 00 00 00 25 00 00 00 00 00 00 00  ........%.......
	0x0020 01 00 9c 00 00 00 00 00 00 00 00 00 00 00 00 00  ................
	0x0030 00 00 00 ff ff ff ff ff ff ff ff 00 00 00 00 00  ................
	0x0040 00 00 00 00 00 00 00 00 00 00 00 25 00 00 00 00  ...........%....
	0x0050 00 00 00 02 00 91 08 00 00 00 00 00 00 00 00 00  ................
	0x0060 00 00 00 00 00 00 00 ff ff ff ff ff ff ff ff 00  ................
	0x0070 00 00 00 00 00 00 00 00 00 00 00 00 00 00 00 25  ...............%
	0x0080 00 00 00 00 00 00 00 02 00 91 10 00 00 00 00 00  ................
	0x0090 00 00 00 00 00 00 00 00 00 00 00 ff ff ff ff ff  ................
	0x00a0 ff ff ff 00 00 00 00 00 00 00 00 19 00 00 00 00  ................
	0x00b0 00 00 00 25 00 00 00 00 00 00 00 02 00 91 18 00  ...%............
	0x00c0 00 00 00 00 00 00 00 00 00 00 00 00 00 00 00 ff  ................
	0x00d0 ff ff ff ff ff ff ff 00 00 00 00 00 00 00 00 1c  ................
	0x00e0 00 00 00 00 00 00 00 25 00 00 00 00 00 00 00 02  .......%........
	0x00f0 00 91 20 00 00 00 00 00 00 00 00 00 00 00 00 00  .. .............
	0x0100 00 00 00                                         ...
	rel 8+8 t=1 "".Add64<1>+0
	rel 59+8 t=1 "".Add64<1>+0
	rel 111+8 t=1 "".Add64<1>+0
	rel 163+8 t=1 "".Add64<1>+0
	rel 215+8 t=1 "".Add64<1>+0
aux for "".Add64<0> SDWARFLINES size=24
	0x0000 00 09 02 00 00 00 00 00 00 00 00 04 02 03 b9 03  ................
	0x0010 14 06 41 02 20 00 01 01                          ..A. ...
	rel 3+8 t=1 "".Add64<1>+0
aux for "".Add64<0> SDWARFFCN size=126
	0x0000 03 63 6f 6d 6d 61 6e 64 2d 6c 69 6e 65 2d 61 72  .command-line-ar
	0x0010 67 75 6d 65 6e 74 73 2e 41 64 64 36 34 00 00 00  guments.Add64...
	0x0020 00 00 00 00 00 00 00 00 00 00 00 00 00 00 01 9c  ................
	0x0030 02 00 00 00 01 10 78 00 00 b9 03 00 00 00 00 00  ......x.........
	0x0040 00 00 00 10 79 00 00 b9 03 00 00 00 00 00 00 00  ....y...........
	0x0050 00 10 63 69 00 00 b9 03 00 00 00 00 00 00 00 00  ..ci............
	0x0060 10 72 00 01 b9 03 00 00 00 00 00 00 00 00 10 63  .r.............c
	0x0070 6f 00 01 b9 03 00 00 00 00 00 00 00 00 00        o.............
	rel 30+8 t=1 "".Add64<1>+0
	rel 38+8 t=1 "".Add64<1>+37
	rel 59+4 t=31 go.info.uint64<0>+0
	rel 63+4 t=31 <0>+0
	rel 73+4 t=31 go.info.uint64<0>+0
	rel 77+4 t=31 <0>+51
	rel 88+4 t=31 go.info.uint64<0>+0
	rel 92+4 t=31 <0>+103
	rel 102+4 t=31 go.info.uint64<0>+0
	rel 106+4 t=31 <0>+155
	rel 117+4 t=31 go.info.uint64<0>+0
	rel 121+4 t=31 <0>+207
aux for "".Add64C<0> SDWARFLOC size=207
	0x0000 ff ff ff ff ff ff ff ff 00 00 00 00 00 00 00 00  ................
	0x0010 00 00 00 00 00 00 00 00 21 00 00 00 00 00 00 00  ........!.......
	0x0020 01 00 9c 00 00 00 00 00 00 00 00 00 00 00 00 00  ................
	0x0030 00 00 00 ff ff ff ff ff ff ff ff 00 00 00 00 00  ................
	0x0040 00 00 00 00 00 00 00 00 00 00 00 21 00 00 00 00  ...........!....
	0x0050 00 00 00 02 00 91 08 00 00 00 00 00 00 00 00 00  ................
	0x0060 00 00 00 00 00 00 00 ff ff ff ff ff ff ff ff 00  ................
	0x0070 00 00 00 00 00 00 00 15 00 00 00 00 00 00 00 21  ...............!
	0x0080 00 00 00 00 00 00 00 02 00 91 10 00 00 00 00 00  ................
	0x0090 00 00 00 00 00 00 00 00 00 00 00 ff ff ff ff ff  ................
	0x00a0 ff ff ff 00 00 00 00 00 00 00 00 18 00 00 00 00  ................
	0x00b0 00 00 00 21 00 00 00 00 00 00 00 02 00 91 18 00  ...!............
	0x00c0 00 00 00 00 00 00 00 00 00 00 00 00 00 00 00     ...............
	rel 8+8 t=1 "".Add64C<1>+0
	rel 59+8 t=1 "".Add64C<1>+0
	rel 111+8 t=1 "".Add64C<1>+0
	rel 163+8 t=1 "".Add64C<1>+0
aux for "".Add64C<0> SDWARFLINES size=24
	0x0000 00 09 02 00 00 00 00 00 00 00 00 04 02 03 c2 03  ................
	0x0010 14 06 41 02 1c 00 01 01                          ..A.....
	rel 3+8 t=1 "".Add64C<1>+0
aux for "".Add64C<0> SDWARFFCN size=113
	0x0000 03 63 6f 6d 6d 61 6e 64 2d 6c 69 6e 65 2d 61 72  .command-line-ar
	0x0010 67 75 6d 65 6e 74 73 2e 41 64 64 36 34 43 00 00  guments.Add64C..
	0x0020 00 00 00 00 00 00 00 00 00 00 00 00 00 00 00 01  ................
	0x0030 9c 02 00 00 00 01 10 78 00 00 c2 03 00 00 00 00  .......x........
	0x0040 00 00 00 00 10 63 69 00 00 c2 03 00 00 00 00 00  .....ci.........
	0x0050 00 00 00 10 72 00 01 c2 03 00 00 00 00 00 00 00  ....r...........
	0x0060 00 10 63 6f 00 01 c2 03 00 00 00 00 00 00 00 00  ..co............
	0x0070 00                                               .
	rel 31+8 t=1 "".Add64C<1>+0
	rel 39+8 t=1 "".Add64C<1>+33
	rel 60+4 t=31 go.info.uint64<0>+0
	rel 64+4 t=31 <0>+0
	rel 75+4 t=31 go.info.uint64<0>+0
	rel 79+4 t=31 <0>+51
	rel 89+4 t=31 go.info.uint64<0>+0
	rel 93+4 t=31 <0>+103
	rel 104+4 t=31 go.info.uint64<0>+0
	rel 108+4 t=31 <0>+155
aux for "".Add64Z<0> SDWARFLOC size=207
	0x0000 ff ff ff ff ff ff ff ff 00 00 00 00 00 00 00 00  ................
	0x0010 00 00 00 00 00 00 00 00 1e 00 00 00 00 00 00 00  ................
	0x0020 01 00 9c 00 00 00 00 00 00 00 00 00 00 00 00 00  ................
	0x0030 00 00 00 ff ff ff ff ff ff ff ff 00 00 00 00 00  ................
	0x0040 00 00 00 00 00 00 00 00 00 00 00 1e 00 00 00 00  ................
	0x0050 00 00 00 02 00 91 08 00 00 00 00 00 00 00 00 00  ................
	0x0060 00 00 00 00 00 00 00 ff ff ff ff ff ff ff ff 00  ................
	0x0070 00 00 00 00 00 00 00 12 00 00 00 00 00 00 00 1e  ................
	0x0080 00 00 00 00 00 00 00 02 00 91 10 00 00 00 00 00  ................
	0x0090 00 00 00 00 00 00 00 00 00 00 00 ff ff ff ff ff  ................
	0x00a0 ff ff ff 00 00 00 00 00 00 00 00 15 00 00 00 00  ................
	0x00b0 00 00 00 1e 00 00 00 00 00 00 00 02 00 91 18 00  ................
	0x00c0 00 00 00 00 00 00 00 00 00 00 00 00 00 00 00     ...............
	rel 8+8 t=1 "".Add64Z<1>+0
	rel 59+8 t=1 "".Add64Z<1>+0
	rel 111+8 t=1 "".Add64Z<1>+0
	rel 163+8 t=1 "".Add64Z<1>+0
aux for "".Add64Z<0> SDWARFLINES size=24
	0x0000 00 09 02 00 00 00 00 00 00 00 00 04 02 03 cb 03  ................
	0x0010 14 06 41 02 19 00 01 01                          ..A.....
	rel 3+8 t=1 "".Add64Z<1>+0
aux for "".Add64Z<0> SDWARFFCN size=112
	0x0000 03 63 6f 6d 6d 61 6e 64 2d 6c 69 6e 65 2d 61 72  .command-line-ar
	0x0010 67 75 6d 65 6e 74 73 2e 41 64 64 36 34 5a 00 00  guments.Add64Z..
	0x0020 00 00 00 00 00 00 00 00 00 00 00 00 00 00 00 01  ................
	0x0030 9c 02 00 00 00 01 10 78 00 00 cb 03 00 00 00 00  .......x........
	0x0040 00 00 00 00 10 79 00 00 cb 03 00 00 00 00 00 00  .....y..........
	0x0050 00 00 10 72 00 01 cb 03 00 00 00 00 00 00 00 00  ...r............
	0x0060 10 63 6f 00 01 cb 03 00 00 00 00 00 00 00 00 00  .co.............
	rel 31+8 t=1 "".Add64Z<1>+0
	rel 39+8 t=1 "".Add64Z<1>+30
	rel 60+4 t=31 go.info.uint64<0>+0
	rel 64+4 t=31 <0>+0
	rel 74+4 t=31 go.info.uint64<0>+0
	rel 78+4 t=31 <0>+51
	rel 88+4 t=31 go.info.uint64<0>+0
	rel 92+4 t=31 <0>+103
	rel 103+4 t=31 go.info.uint64<0>+0
	rel 107+4 t=31 <0>+155
aux for "".Add64R<0> SDWARFLOC size=206
	0x0000 ff ff ff ff ff ff ff ff 00 00 00 00 00 00 00 00  ................
	0x0010 19 00 00 00 00 00 00 00 1a 00 00 00 00 00 00 00  ................
	0x0020 01 00 50 00 00 00 00 00 00 00 00 00 00 00 00 00  ..P.............
	0x0030 00 00 00 ff ff ff ff ff ff ff ff 00 00 00 00 00  ................
	0x0040 00 00 00 00 00 00 00 00 00 00 00 1a 00 00 00 00  ................
	0x0050 00 00 00 01 00 9c 00 00 00 00 00 00 00 00 00 00  ................
	0x0060 00 00 00 00 00 00 ff ff ff ff ff ff ff ff 00 00  ................
	0x0070 00 00 00 00 00 00 00 00 00 00 00 00 00 00 1a 00  ................
	0x0080 00 00 00 00 00 00 02 00 91 08 00 00 00 00 00 00  ................
	0x0090 00 00 00 00 00 00 00 00 00 00 ff ff ff ff ff ff  ................
	0x00a0 ff ff 00 00 00 00 00 00 00 00 00 00 00 00 00 00  ................
	0x00b0 00 00 1a 00 00 00 00 00 00 00 02 00 91 10 00 00  ................
	0x00c0 00 00 00 00 00 00 00 00 00 00 00 00 00 00        ..............
	rel 8+8 t=1 "".Add64R<1>+0
	rel 59+8 t=1 "".Add64R<1>+0
	rel 110+8 t=1 "".Add64R<1>+0
	rel 162+8 t=1 "".Add64R<1>+0
aux for "".Add64R<0> SDWARFLINES size=28
	0x0000 00 09 02 00 00 00 00 00 00 00 00 04 02 03 d4 03  ................
	0x0010 14 06 41 06 a6 06 41 02 01 00 01 01              ..A...A.....
	rel 3+8 t=1 "".Add64R<1>+0
aux for "".Add64R<0> SDWARFFCN size=124
	0x0000 03 63 6f 6d 6d 61 6e 64 2d 6c 69 6e 65 2d 61 72  .command-line-ar
	0x0010 67 75 6d 65 6e 74 73 2e 41 64 64 36 34 52 00 00  guments.Add64R..
	0x0020 00 00 00 00 00 00 00 00 00 00 00 00 00 00 00 01  ................
	0x0030 9c 02 00 00 00 01 0b 72 00 da 03 00 00 00 00 00  .......r........
	0x0040 00 00 00 10 78 00 00 d4 03 00 00 00 00 00 00 00  ....x...........
	0x0050 00 10 79 00 00 d4 03 00 00 00 00 00 00 00 00 10  ..y.............
	0x0060 63 69 00 00 d4 03 00 00 00 00 00 00 00 00 0f 7e  ci.............~
	0x0070 72 33 00 01 d4 03 00 00 00 00 00 00              r3..........
	rel 0+0 t=24 type.uint64<0>+0
	rel 31+8 t=1 "".Add64R<1>+0
	rel 39+8 t=1 "".Add64R<1>+26
	rel 59+4 t=31 go.info.uint64<0>+0
	rel 63+4 t=31 <0>+0
	rel 73+4 t=31 go.info.uint64<0>+0
	rel 77+4 t=31 <0>+51
	rel 87+4 t=31 go.info.uint64<0>+0
	rel 91+4 t=31 <0>+102
	rel 102+4 t=31 go.info.uint64<0>+0
	rel 106+4 t=31 <0>+154
	rel 118+4 t=31 go.info.uint64<0>+0
aux for "".Add64M<0> SDWARFLOC size=155
	0x0000 ff ff ff ff ff ff ff ff 00 00 00 00 00 00 00 00  ................
	0x0010 00 00 00 00 00 00 00 00 3a 00 00 00 00 00 00 00  ........:.......
	0x0020 01 00 9c 00 00 00 00 00 00 00 00 00 00 00 00 00  ................
	0x0030 00 00 00 ff ff ff ff ff ff ff ff 00 00 00 00 00  ................
	0x0040 00 00 00 00 00 00 00 00 00 00 00 3a 00 00 00 00  ...........:....
	0x0050 00 00 00 02 00 91 08 00 00 00 00 00 00 00 00 00  ................
	0x0060 00 00 00 00 00 00 00 ff ff ff ff ff ff ff ff 00  ................
	0x0070 00 00 00 00 00 00 00 00 00 00 00 00 00 00 00 3a  ...............:
	0x0080 00 00 00 00 00 00 00 02 00 91 10 00 00 00 00 00  ................
	0x0090 00 00 00 00 00 00 00 00 00 00 00                 ...........
	rel 8+8 t=1 "".Add64M<1>+0
	rel 59+8 t=1 "".Add64M<1>+0
	rel 111+8 t=1 "".Add64M<1>+0
aux for "".Add64M<0> SDWARFLINES size=36
	0x0000 00 09 02 00 00 00 00 00 00 00 00 04 02 03 d9 03  ................
	0x0010 14 06 41 06 03 01 f0 06 37 06 7e 06 37 06 7e 02  ..A.....7.~.7.~.
	0x0020 01 00 01 01                                      ....
	rel 3+8 t=1 "".Add64M<1>+0
aux for "".Add64M<0> SDWARFFCN size=97
	0x0000 03 63 6f 6d 6d 61 6e 64 2d 6c 69 6e 65 2d 61 72  .command-line-ar
	0x0010 67 75 6d 65 6e 74 73 2e 41 64 64 36 34 4d 00 00  guments.Add64M..
	0x0020 00 00 00 00 00 00 00 00 00 00 00 00 00 00 00 01  ................
	0x0030 9c 02 00 00 00 01 10 70 00 00 dd 03 00 00 00 00  .......p........
	0x0040 00 00 00 00 10 71 00 00 dd 03 00 00 00 00 00 00  .....q..........
	0x0050 00 00 10 72 00 00 dd 03 00 00 00 00 00 00 00 00  ...r............
	0x0060 00                                               .
	rel 31+8 t=1 "".Add64M<1>+0
	rel 39+8 t=1 "".Add64M<1>+58
	rel 60+4 t=31 go.info.*[3]uint64<0>+0
	rel 64+4 t=31 <0>+0
	rel 74+4 t=31 go.info.*[3]uint64<0>+0
	rel 78+4 t=31 <0>+51
	rel 88+4 t=31 go.info.*[3]uint64<0>+0
	rel 92+4 t=31 <0>+103
aux for "".Add64PanicOnOverflowEQ<0> SDWARFLOC size=205
	0x0000 ff ff ff ff ff ff ff ff 00 00 00 00 00 00 00 00  ................
	0x0010 2d 00 00 00 00 00 00 00 4c 00 00 00 00 00 00 00  -.......L.......
	0x0020 01 00 50 00 00 00 00 00 00 00 00 00 00 00 00 00  ..P.............
	0x0030 00 00 00 ff ff ff ff ff ff ff ff 00 00 00 00 00  ................
	0x0040 00 00 00 30 00 00 00 00 00 00 00 65 00 00 00 00  ...0.......e....
	0x0050 00 00 00 01 00 52 00 00 00 00 00 00 00 00 00 00  .....R..........
	0x0060 00 00 00 00 00 00 ff ff ff ff ff ff ff ff 00 00  ................
	0x0070 00 00 00 00 00 00 00 00 00 00 00 00 00 00 6d 00  ..............m.
	0x0080 00 00 00 00 00 00 01 00 9c 00 00 00 00 00 00 00  ................
	0x0090 00 00 00 00 00 00 00 00 00 ff ff ff ff ff ff ff  ................
	0x00a0 ff 00 00 00 00 00 00 00 00 00 00 00 00 00 00 00  ................
	0x00b0 00 6d 00 00 00 00 00 00 00 02 00 91 08 00 00 00  .m..............
	0x00c0 00 00 00 00 00 00 00 00 00 00 00 00 00           .............
	rel 8+8 t=1 "".Add64PanicOnOverflowEQ<1>+0
	rel 59+8 t=1 "".Add64PanicOnOverflowEQ<1>+0
	rel 110+8 t=1 "".Add64PanicOnOverflowEQ<1>+0
	rel 161+8 t=1 "".Add64PanicOnOverflowEQ<1>+0
aux for "".Add64PanicOnOverflowEQ<0> SDWARFLINES size=42
	0x0000 00 09 02 00 00 00 00 00 00 00 00 04 02 03 e3 03  ................
	0x0010 14 0a a5 9c 06 41 06 9d 06 37 06 26 06 41 06 71  .....A...7.&.A.q
	0x0020 06 55 06 d7 47 02 07 00 01 01                    .U..G.....
	rel 3+8 t=1 "".Add64PanicOnOverflowEQ<1>+0
aux for "".Add64PanicOnOverflowEQ<0> SDWARFFCN size=138
	0x0000 03 63 6f 6d 6d 61 6e 64 2d 6c 69 6e 65 2d 61 72  .command-line-ar
	0x0010 67 75 6d 65 6e 74 73 2e 41 64 64 36 34 50 61 6e  guments.Add64Pan
	0x0020 69 63 4f 6e 4f 76 65 72 66 6c 6f 77 45 51 00 00  icOnOverflowEQ..
	0x0030 00 00 00 00 00 00 00 00 00 00 00 00 00 00 00 01  ................
	0x0040 9c 02 00 00 00 01 0b 72 00 ea 03 00 00 00 00 00  .......r........
	0x0050 00 00 00 0b 63 00 ea 03 00 00 00 00 00 00 00 00  ....c...........
	0x0060 10 61 00 00 e9 03 00 00 00 00 00 00 00 00 10 62  .a.............b
	0x0070 00 00 e9 03 00 00 00 00 00 00 00 00 0f 7e 72 32  .............~r2
	0x0080 00 01 e9 03 00 00 00 00 00 00                    ..........
	rel 0+0 t=24 type.uint64<0>+0
	rel 47+8 t=1 "".Add64PanicOnOverflowEQ<1>+0
	rel 55+8 t=1 "".Add64PanicOnOverflowEQ<1>+109
	rel 75+4 t=31 go.info.uint64<0>+0
	rel 79+4 t=31 <0>+0
	rel 88+4 t=31 go.info.uint64<0>+0
	rel 92+4 t=31 <0>+51
	rel 102+4 t=31 go.info.uint64<0>+0
	rel 106+4 t=31 <0>+102
	rel 116+4 t=31 go.info.uint64<0>+0
	rel 120+4 t=31 <0>+153
	rel 132+4 t=31 go.info.uint64<0>+0
aux for "".Add64PanicOnOverflowNE<0> SDWARFLOC size=205
	0x0000 ff ff ff ff ff ff ff ff 00 00 00 00 00 00 00 00  ................
	0x0010 2d 00 00 00 00 00 00 00 4b 00 00 00 00 00 00 00  -.......K.......
	0x0020 01 00 50 00 00 00 00 00 00 00 00 00 00 00 00 00  ..P.............
	0x0030 00 00 00 ff ff ff ff ff ff ff ff 00 00 00 00 00  ................
	0x0040 00 00 00 30 00 00 00 00 00 00 00 65 00 00 00 00  ...0.......e....
	0x0050 00 00 00 01 00 52 00 00 00 00 00 00 00 00 00 00  .....R..........
	0x0060 00 00 00 00 00 00 ff ff ff ff ff ff ff ff 00 00  ................
	0x0070 00 00 00 00 00 00 00 00 00 00 00 00 00 00 6d 00  ..............m.
	0x0080 00 00 00 00 00 00 01 00 9c 00 00 00 00 00 00 00  ................
	0x0090 00 00 00 00 00 00 00 00 00 ff ff ff ff ff ff ff  ................
	0x00a0 ff 00 00 00 00 00 00 00 00 00 00 00 00 00 00 00  ................
	0x00b0 00 6d 00 00 00 00 00 00 00 02 00 91 08 00 00 00  .m..............
	0x00c0 00 00 00 00 00 00 00 00 00 00 00 00 00           .............
	rel 8+8 t=1 "".Add64PanicOnOverflowNE<1>+0
	rel 59+8 t=1 "".Add64PanicOnOverflowNE<1>+0
	rel 110+8 t=1 "".Add64PanicOnOverflowNE<1>+0
	rel 161+8 t=1 "".Add64PanicOnOverflowNE<1>+0
aux for "".Add64PanicOnOverflowNE<0> SDWARFLINES size=42
	0x0000 00 09 02 00 00 00 00 00 00 00 00 04 02 03 ec 03  ................
	0x0010 14 0a a5 9c 06 41 06 9d 06 2d 06 26 06 41 06 71  .....A...-.&.A.q
	0x0020 06 55 06 e1 47 02 07 00 01 01                    .U..G.....
	rel 3+8 t=1 "".Add64PanicOnOverflowNE<1>+0
aux for "".Add64PanicOnOverflowNE<0> SDWARFFCN size=138
	0x0000 03 63 6f 6d 6d 61 6e 64 2d 6c 69 6e 65 2d 61 72  .command-line-ar
	0x0010 67 75 6d 65 6e 74 73 2e 41 64 64 36 34 50 61 6e  guments.Add64Pan
	0x0020 69 63 4f 6e 4f 76 65 72 66 6c 6f 77 4e 45 00 00  icOnOverflowNE..
	0x0030 00 00 00 00 00 00 00 00 00 00 00 00 00 00 00 01  ................
	0x0040 9c 02 00 00 00 01 0b 72 00 f3 03 00 00 00 00 00  .......r........
	0x0050 00 00 00 0b 63 00 f3 03 00 00 00 00 00 00 00 00  ....c...........
	0x0060 10 61 00 00 f2 03 00 00 00 00 00 00 00 00 10 62  .a.............b
	0x0070 00 00 f2 03 00 00 00 00 00 00 00 00 0f 7e 72 32  .............~r2
	0x0080 00 01 f2 03 00 00 00 00 00 00                    ..........
	rel 0+0 t=24 type.uint64<0>+0
	rel 47+8 t=1 "".Add64PanicOnOverflowNE<1>+0
	rel 55+8 t=1 "".Add64PanicOnOverflowNE<1>+109
	rel 75+4 t=31 go.info.uint64<0>+0
	rel 79+4 t=31 <0>+0
	rel 88+4 t=31 go.info.uint64<0>+0
	rel 92+4 t=31 <0>+51
	rel 102+4 t=31 go.info.uint64<0>+0
	rel 106+4 t=31 <0>+102
	rel 116+4 t=31 go.info.uint64<0>+0
	rel 120+4 t=31 <0>+153
	rel 132+4 t=31 go.info.uint64<0>+0
aux for "".Add64PanicOnOverflowGT<0> SDWARFLOC size=205
	0x0000 ff ff ff ff ff ff ff ff 00 00 00 00 00 00 00 00  ................
	0x0010 2d 00 00 00 00 00 00 00 4b 00 00 00 00 00 00 00  -.......K.......
	0x0020 01 00 50 00 00 00 00 00 00 00 00 00 00 00 00 00  ..P.............
	0x0030 00 00 00 ff ff ff ff ff ff ff ff 00 00 00 00 00  ................
	0x0040 00 00 00 30 00 00 00 00 00 00 00 65 00 00 00 00  ...0.......e....
	0x0050 00 00 00 01 00 52 00 00 00 00 00 00 00 00 00 00  .....R..........
	0x0060 00 00 00 00 00 00 ff ff ff ff ff ff ff ff 00 00  ................
	0x0070 00 00 00 00 00 00 00 00 00 00 00 00 00 00 6d 00  ..............m.
	0x0080 00 00 00 00 00 00 01 00 9c 00 00 00 00 00 00 00  ................
	0x0090 00 00 00 00 00 00 00 00 00 ff ff ff ff ff ff ff  ................
	0x00a0 ff 00 00 00 00 00 00 00 00 00 00 00 00 00 00 00  ................
	0x00b0 00 6d 00 00 00 00 00 00 00 02 00 91 08 00 00 00  .m..............
	0x00c0 00 00 00 00 00 00 00 00 00 00 00 00 00           .............
	rel 8+8 t=1 "".Add64PanicOnOverflowGT<1>+0
	rel 59+8 t=1 "".Add64PanicOnOverflowGT<1>+0
	rel 110+8 t=1 "".Add64PanicOnOverflowGT<1>+0
	rel 161+8 t=1 "".Add64PanicOnOverflowGT<1>+0
aux for "".Add64PanicOnOverflowGT<0> SDWARFLINES size=42
	0x0000 00 09 02 00 00 00 00 00 00 00 00 04 02 03 f5 03  ................
	0x0010 14 0a a5 9c 06 41 06 9d 06 2d 06 26 06 41 06 71  .....A...-.&.A.q
	0x0020 06 55 06 e1 47 02 07 00 01 01                    .U..G.....
	rel 3+8 t=1 "".Add64PanicOnOverflowGT<1>+0
aux for "".Add64PanicOnOverflowGT<0> SDWARFFCN size=138
	0x0000 03 63 6f 6d 6d 61 6e 64 2d 6c 69 6e 65 2d 61 72  .command-line-ar
	0x0010 67 75 6d 65 6e 74 73 2e 41 64 64 36 34 50 61 6e  guments.Add64Pan
	0x0020 69 63 4f 6e 4f 76 65 72 66 6c 6f 77 47 54 00 00  icOnOverflowGT..
	0x0030 00 00 00 00 00 00 00 00 00 00 00 00 00 00 00 01  ................
	0x0040 9c 02 00 00 00 01 0b 72 00 fc 03 00 00 00 00 00  .......r........
	0x0050 00 00 00 0b 63 00 fc 03 00 00 00 00 00 00 00 00  ....c...........
	0x0060 10 61 00 00 fb 03 00 00 00 00 00 00 00 00 10 62  .a.............b
	0x0070 00 00 fb 03 00 00 00 00 00 00 00 00 0f 7e 72 32  .............~r2
	0x0080 00 01 fb 03 00 00 00 00 00 00                    ..........
	rel 0+0 t=24 type.uint64<0>+0
	rel 47+8 t=1 "".Add64PanicOnOverflowGT<1>+0
	rel 55+8 t=1 "".Add64PanicOnOverflowGT<1>+109
	rel 75+4 t=31 go.info.uint64<0>+0
	rel 79+4 t=31 <0>+0
	rel 88+4 t=31 go.info.uint64<0>+0
	rel 92+4 t=31 <0>+51
	rel 102+4 t=31 go.info.uint64<0>+0
	rel 106+4 t=31 <0>+102
	rel 116+4 t=31 go.info.uint64<0>+0
	rel 120+4 t=31 <0>+153
	rel 132+4 t=31 go.info.uint64<0>+0
aux for "".Add64MPanicOnOverflowEQ<0> SDWARFLOC size=51
	0x0000 ff ff ff ff ff ff ff ff 00 00 00 00 00 00 00 00  ................
	0x0010 45 00 00 00 00 00 00 00 66 00 00 00 00 00 00 00  E.......f.......
	0x0020 01 00 50 00 00 00 00 00 00 00 00 00 00 00 00 00  ..P.............
	0x0030 00 00 00                                         ...
	rel 8+8 t=1 "".Add64MPanicOnOverflowEQ<1>+0
aux for "".Add64MPanicOnOverflowEQ<0> SDWARFLINES size=54
	0x0000 00 09 02 00 00 00 00 00 00 00 00 04 02 03 fe 03  ................
	0x0010 14 0a a5 06 b9 06 44 06 41 06 60 06 41 06 9d 06  ......D.A.`.A...
	0x0020 37 06 26 06 41 06 a3 06 55 06 af 06 03 7d 47 06  7.&.A...U....}G.
	0x0030 37 02 0a 00 01 01                                7.....
	rel 3+8 t=1 "".Add64MPanicOnOverflowEQ<1>+0
aux for "".Add64MPanicOnOverflowEQ<0> SDWARFFCN size=123
	0x0000 03 63 6f 6d 6d 61 6e 64 2d 6c 69 6e 65 2d 61 72  .command-line-ar
	0x0010 67 75 6d 65 6e 74 73 2e 41 64 64 36 34 4d 50 61  guments.Add64MPa
	0x0020 6e 69 63 4f 6e 4f 76 65 72 66 6c 6f 77 45 51 00  nicOnOverflowEQ.
	0x0030 00 00 00 00 00 00 00 00 00 00 00 00 00 00 00 00  ................
	0x0040 01 9c 02 00 00 00 01 0b 63 00 86 04 00 00 00 00  ........c.......
	0x0050 00 00 00 00 0f 61 00 00 84 04 00 00 00 00 01 9c  .....a..........
	0x0060 0f 62 00 00 84 04 00 00 00 00 02 91 10 0f 7e 72  .b............~r
	0x0070 32 00 01 84 04 00 00 00 00 00 00                 2..........
	rel 0+0 t=24 type.[2]uint64<0>+0
	rel 48+8 t=1 "".Add64MPanicOnOverflowEQ<1>+0
	rel 56+8 t=1 "".Add64MPanicOnOverflowEQ<1>+138
	rel 76+4 t=31 go.info.uint64<0>+0
	rel 80+4 t=31 <0>+0
	rel 90+4 t=31 go.info.[2]uint64<0>+0
	rel 102+4 t=31 go.info.[2]uint64<0>+0
	rel 117+4 t=31 go.info.[2]uint64<0>+0
aux for "".Add64MPanicOnOverflowNE<0> SDWARFLOC size=51
	0x0000 ff ff ff ff ff ff ff ff 00 00 00 00 00 00 00 00  ................
	0x0010 45 00 00 00 00 00 00 00 65 00 00 00 00 00 00 00  E.......e.......
	0x0020 01 00 50 00 00 00 00 00 00 00 00 00 00 00 00 00  ..P.............
	0x0030 00 00 00                                         ...
	rel 8+8 t=1 "".Add64MPanicOnOverflowNE<1>+0
aux for "".Add64MPanicOnOverflowNE<0> SDWARFLINES size=54
	0x0000 00 09 02 00 00 00 00 00 00 00 00 04 02 03 8a 04  ................
	0x0010 14 0a a5 06 b9 06 44 06 41 06 60 06 41 06 9d 06  ......D.A.`.A...
	0x0020 2d 06 26 06 41 06 a3 06 55 06 af 06 03 7d 47 06  -.&.A...U....}G.
	0x0030 41 02 0a 00 01 01                                A.....
	rel 3+8 t=1 "".Add64MPanicOnOverflowNE<1>+0
aux for "".Add64MPanicOnOverflowNE<0> SDWARFFCN size=123
	0x0000 03 63 6f 6d 6d 61 6e 64 2d 6c 69 6e 65 2d 61 72  .command-line-ar
	0x0010 67 75 6d 65 6e 74 73 2e 41 64 64 36 34 4d 50 61  guments.Add64MPa
	0x0020 6e 69 63 4f 6e 4f 76 65 72 66 6c 6f 77 4e 45 00  nicOnOverflowNE.
	0x0030 00 00 00 00 00 00 00 00 00 00 00 00 00 00 00 00  ................
	0x0040 01 9c 02 00 00 00 01 0b 63 00 92 04 00 00 00 00  ........c.......
	0x0050 00 00 00 00 0f 61 00 00 90 04 00 00 00 00 01 9c  .....a..........
	0x0060 0f 62 00 00 90 04 00 00 00 00 02 91 10 0f 7e 72  .b............~r
	0x0070 32 00 01 90 04 00 00 00 00 00 00                 2..........
	rel 0+0 t=24 type.[2]uint64<0>+0
	rel 48+8 t=1 "".Add64MPanicOnOverflowNE<1>+0
	rel 56+8 t=1 "".Add64MPanicOnOverflowNE<1>+138
	rel 76+4 t=31 go.info.uint64<0>+0
	rel 80+4 t=31 <0>+0
	rel 90+4 t=31 go.info.[2]uint64<0>+0
	rel 102+4 t=31 go.info.[2]uint64<0>+0
	rel 117+4 t=31 go.info.[2]uint64<0>+0
aux for "".Add64MPanicOnOverflowGT<0> SDWARFLOC size=51
	0x0000 ff ff ff ff ff ff ff ff 00 00 00 00 00 00 00 00  ................
	0x0010 45 00 00 00 00 00 00 00 65 00 00 00 00 00 00 00  E.......e.......
	0x0020 01 00 50 00 00 00 00 00 00 00 00 00 00 00 00 00  ..P.............
	0x0030 00 00 00                                         ...
	rel 8+8 t=1 "".Add64MPanicOnOverflowGT<1>+0
aux for "".Add64MPanicOnOverflowGT<0> SDWARFLINES size=54
	0x0000 00 09 02 00 00 00 00 00 00 00 00 04 02 03 96 04  ................
	0x0010 14 0a a5 06 b9 06 44 06 41 06 60 06 41 06 9d 06  ......D.A.`.A...
	0x0020 2d 06 26 06 41 06 a3 06 55 06 af 06 03 7d 47 06  -.&.A...U....}G.
	0x0030 41 02 0a 00 01 01                                A.....
	rel 3+8 t=1 "".Add64MPanicOnOverflowGT<1>+0
aux for "".Add64MPanicOnOverflowGT<0> SDWARFFCN size=123
	0x0000 03 63 6f 6d 6d 61 6e 64 2d 6c 69 6e 65 2d 61 72  .command-line-ar
	0x0010 67 75 6d 65 6e 74 73 2e 41 64 64 36 34 4d 50 61  guments.Add64MPa
	0x0020 6e 69 63 4f 6e 4f 76 65 72 66 6c 6f 77 47 54 00  nicOnOverflowGT.
	0x0030 00 00 00 00 00 00 00 00 00 00 00 00 00 00 00 00  ................
	0x0040 01 9c 02 00 00 00 01 0b 63 00 9e 04 00 00 00 00  ........c.......
	0x0050 00 00 00 00 0f 61 00 00 9c 04 00 00 00 00 01 9c  .....a..........
	0x0060 0f 62 00 00 9c 04 00 00 00 00 02 91 10 0f 7e 72  .b............~r
	0x0070 32 00 01 9c 04 00 00 00 00 00 00                 2..........
	rel 0+0 t=24 type.[2]uint64<0>+0
	rel 48+8 t=1 "".Add64MPanicOnOverflowGT<1>+0
	rel 56+8 t=1 "".Add64MPanicOnOverflowGT<1>+138
	rel 76+4 t=31 go.info.uint64<0>+0
	rel 80+4 t=31 <0>+0
	rel 90+4 t=31 go.info.[2]uint64<0>+0
	rel 102+4 t=31 go.info.[2]uint64<0>+0
	rel 117+4 t=31 go.info.[2]uint64<0>+0
aux for "".Sub<0> SDWARFLOC size=259
	0x0000 ff ff ff ff ff ff ff ff 00 00 00 00 00 00 00 00  ................
	0x0010 00 00 00 00 00 00 00 00 25 00 00 00 00 00 00 00  ........%.......
	0x0020 01 00 9c 00 00 00 00 00 00 00 00 00 00 00 00 00  ................
	0x0030 00 00 00 ff ff ff ff ff ff ff ff 00 00 00 00 00  ................
	0x0040 00 00 00 00 00 00 00 00 00 00 00 25 00 00 00 00  ...........%....
	0x0050 00 00 00 02 00 91 08 00 00 00 00 00 00 00 00 00  ................
	0x0060 00 00 00 00 00 00 00 ff ff ff ff ff ff ff ff 00  ................
	0x0070 00 00 00 00 00 00 00 00 00 00 00 00 00 00 00 25  ...............%
	0x0080 00 00 00 00 00 00 00 02 00 91 10 00 00 00 00 00  ................
	0x0090 00 00 00 00 00 00 00 00 00 00 00 ff ff ff ff ff  ................
	0x00a0 ff ff ff 00 00 00 00 00 00 00 00 19 00 00 00 00  ................
	0x00b0 00 00 00 25 00 00 00 00 00 00 00 02 00 91 18 00  ...%............
	0x00c0 00 00 00 00 00 00 00 00 00 00 00 00 00 00 00 ff  ................
	0x00d0 ff ff ff ff ff ff ff 00 00 00 00 00 00 00 00 1c  ................
	0x00e0 00 00 00 00 00 00 00 25 00 00 00 00 00 00 00 02  .......%........
	0x00f0 00 91 20 00 00 00 00 00 00 00 00 00 00 00 00 00  .. .............
	0x0100 00 00 00                                         ...
	rel 8+8 t=1 "".Sub<1>+0
	rel 59+8 t=1 "".Sub<1>+0
	rel 111+8 t=1 "".Sub<1>+0
	rel 163+8 t=1 "".Sub<1>+0
	rel 215+8 t=1 "".Sub<1>+0
aux for "".Sub<0> SDWARFLINES size=24
	0x0000 00 09 02 00 00 00 00 00 00 00 00 04 02 03 aa 04  ................
	0x0010 14 06 41 02 20 00 01 01                          ..A. ...
	rel 3+8 t=1 "".Sub<1>+0
aux for "".Sub<0> SDWARFFCN size=124
	0x0000 03 63 6f 6d 6d 61 6e 64 2d 6c 69 6e 65 2d 61 72  .command-line-ar
	0x0010 67 75 6d 65 6e 74 73 2e 53 75 62 00 00 00 00 00  guments.Sub.....
	0x0020 00 00 00 00 00 00 00 00 00 00 00 00 01 9c 02 00  ................
	0x0030 00 00 01 10 78 00 00 ac 04 00 00 00 00 00 00 00  ....x...........
	0x0040 00 10 79 00 00 ac 04 00 00 00 00 00 00 00 00 10  ..y.............
	0x0050 63 69 00 00 ac 04 00 00 00 00 00 00 00 00 10 72  ci.............r
	0x0060 00 01 ac 04 00 00 00 00 00 00 00 00 10 63 6f 00  .............co.
	0x0070 01 ac 04 00 00 00 00 00 00 00 00 00              ............
	rel 28+8 t=1 "".Sub<1>+0
	rel 36+8 t=1 "".Sub<1>+37
	rel 57+4 t=31 go.info.uint<0>+0
	rel 61+4 t=31 <0>+0
	rel 71+4 t=31 go.info.uint<0>+0
	rel 75+4 t=31 <0>+51
	rel 86+4 t=31 go.info.uint<0>+0
	rel 90+4 t=31 <0>+103
	rel 100+4 t=31 go.info.uint<0>+0
	rel 104+4 t=31 <0>+155
	rel 115+4 t=31 go.info.uint<0>+0
	rel 119+4 t=31 <0>+207
aux for "".SubC<0> SDWARFLOC size=207
	0x0000 ff ff ff ff ff ff ff ff 00 00 00 00 00 00 00 00  ................
	0x0010 00 00 00 00 00 00 00 00 21 00 00 00 00 00 00 00  ........!.......
	0x0020 01 00 9c 00 00 00 00 00 00 00 00 00 00 00 00 00  ................
	0x0030 00 00 00 ff ff ff ff ff ff ff ff 00 00 00 00 00  ................
	0x0040 00 00 00 00 00 00 00 00 00 00 00 21 00 00 00 00  ...........!....
	0x0050 00 00 00 02 00 91 08 00 00 00 00 00 00 00 00 00  ................
	0x0060 00 00 00 00 00 00 00 ff ff ff ff ff ff ff ff 00  ................
	0x0070 00 00 00 00 00 00 00 15 00 00 00 00 00 00 00 21  ...............!
	0x0080 00 00 00 00 00 00 00 02 00 91 10 00 00 00 00 00  ................
	0x0090 00 00 00 00 00 00 00 00 00 00 00 ff ff ff ff ff  ................
	0x00a0 ff ff ff 00 00 00 00 00 00 00 00 18 00 00 00 00  ................
	0x00b0 00 00 00 21 00 00 00 00 00 00 00 02 00 91 18 00  ...!............
	0x00c0 00 00 00 00 00 00 00 00 00 00 00 00 00 00 00     ...............
	rel 8+8 t=1 "".SubC<1>+0
	rel 59+8 t=1 "".SubC<1>+0
	rel 111+8 t=1 "".SubC<1>+0
	rel 163+8 t=1 "".SubC<1>+0
aux for "".SubC<0> SDWARFLINES size=24
	0x0000 00 09 02 00 00 00 00 00 00 00 00 04 02 03 b1 04  ................
	0x0010 14 06 41 02 1c 00 01 01                          ..A.....
	rel 3+8 t=1 "".SubC<1>+0
aux for "".SubC<0> SDWARFFCN size=111
	0x0000 03 63 6f 6d 6d 61 6e 64 2d 6c 69 6e 65 2d 61 72  .command-line-ar
	0x0010 67 75 6d 65 6e 74 73 2e 53 75 62 43 00 00 00 00  guments.SubC....
	0x0020 00 00 00 00 00 00 00 00 00 00 00 00 00 01 9c 02  ................
	0x0030 00 00 00 01 10 78 00 00 b3 04 00 00 00 00 00 00  .....x..........
	0x0040 00 00 10 63 69 00 00 b3 04 00 00 00 00 00 00 00  ...ci...........
	0x0050 00 10 72 00 01 b3 04 00 00 00 00 00 00 00 00 10  ..r.............
	0x0060 63 6f 00 01 b3 04 00 00 00 00 00 00 00 00 00     co.............
	rel 29+8 t=1 "".SubC<1>+0
	rel 37+8 t=1 "".SubC<1>+33
	rel 58+4 t=31 go.info.uint<0>+0
	rel 62+4 t=31 <0>+0
	rel 73+4 t=31 go.info.uint<0>+0
	rel 77+4 t=31 <0>+51
	rel 87+4 t=31 go.info.uint<0>+0
	rel 91+4 t=31 <0>+103
	rel 102+4 t=31 go.info.uint<0>+0
	rel 106+4 t=31 <0>+155
aux for "".SubZ<0> SDWARFLOC size=207
	0x0000 ff ff ff ff ff ff ff ff 00 00 00 00 00 00 00 00  ................
	0x0010 00 00 00 00 00 00 00 00 1e 00 00 00 00 00 00 00  ................
	0x0020 01 00 9c 00 00 00 00 00 00 00 00 00 00 00 00 00  ................
	0x0030 00 00 00 ff ff ff ff ff ff ff ff 00 00 00 00 00  ................
	0x0040 00 00 00 00 00 00 00 00 00 00 00 1e 00 00 00 00  ................
	0x0050 00 00 00 02 00 91 08 00 00 00 00 00 00 00 00 00  ................
	0x0060 00 00 00 00 00 00 00 ff ff ff ff ff ff ff ff 00  ................
	0x0070 00 00 00 00 00 00 00 12 00 00 00 00 00 00 00 1e  ................
	0x0080 00 00 00 00 00 00 00 02 00 91 10 00 00 00 00 00  ................
	0x0090 00 00 00 00 00 00 00 00 00 00 00 ff ff ff ff ff  ................
	0x00a0 ff ff ff 00 00 00 00 00 00 00 00 15 00 00 00 00  ................
	0x00b0 00 00 00 1e 00 00 00 00 00 00 00 02 00 91 18 00  ................
	0x00c0 00 00 00 00 00 00 00 00 00 00 00 00 00 00 00     ...............
	rel 8+8 t=1 "".SubZ<1>+0
	rel 59+8 t=1 "".SubZ<1>+0
	rel 111+8 t=1 "".SubZ<1>+0
	rel 163+8 t=1 "".SubZ<1>+0
aux for "".SubZ<0> SDWARFLINES size=24
	0x0000 00 09 02 00 00 00 00 00 00 00 00 04 02 03 b8 04  ................
	0x0010 14 06 41 02 19 00 01 01                          ..A.....
	rel 3+8 t=1 "".SubZ<1>+0
aux for "".SubZ<0> SDWARFFCN size=110
	0x0000 03 63 6f 6d 6d 61 6e 64 2d 6c 69 6e 65 2d 61 72  .command-line-ar
	0x0010 67 75 6d 65 6e 74 73 2e 53 75 62 5a 00 00 00 00  guments.SubZ....
	0x0020 00 00 00 00 00 00 00 00 00 00 00 00 00 01 9c 02  ................
	0x0030 00 00 00 01 10 78 00 00 ba 04 00 00 00 00 00 00  .....x..........
	0x0040 00 00 10 79 00 00 ba 04 00 00 00 00 00 00 00 00  ...y............
	0x0050 10 72 00 01 ba 04 00 00 00 00 00 00 00 00 10 63  .r.............c
	0x0060 6f 00 01 ba 04 00 00 00 00 00 00 00 00 00        o.............
	rel 29+8 t=1 "".SubZ<1>+0
	rel 37+8 t=1 "".SubZ<1>+30
	rel 58+4 t=31 go.info.uint<0>+0
	rel 62+4 t=31 <0>+0
	rel 72+4 t=31 go.info.uint<0>+0
	rel 76+4 t=31 <0>+51
	rel 86+4 t=31 go.info.uint<0>+0
	rel 90+4 t=31 <0>+103
	rel 101+4 t=31 go.info.uint<0>+0
	rel 105+4 t=31 <0>+155
aux for "".SubR<0> SDWARFLOC size=206
	0x0000 ff ff ff ff ff ff ff ff 00 00 00 00 00 00 00 00  ................
	0x0010 19 00 00 00 00 00 00 00 1a 00 00 00 00 00 00 00  ................
	0x0020 01 00 50 00 00 00 00 00 00 00 00 00 00 00 00 00  ..P.............
	0x0030 00 00 00 ff ff ff ff ff ff ff ff 00 00 00 00 00  ................
	0x0040 00 00 00 00 00 00 00 00 00 00 00 1a 00 00 00 00  ................
	0x0050 00 00 00 01 00 9c 00 00 00 00 00 00 00 00 00 00  ................
	0x0060 00 00 00 00 00 00 ff ff ff ff ff ff ff ff 00 00  ................
	0x0070 00 00 00 00 00 00 00 00 00 00 00 00 00 00 1a 00  ................
	0x0080 00 00 00 00 00 00 02 00 91 08 00 00 00 00 00 00  ................
	0x0090 00 00 00 00 00 00 00 00 00 00 ff ff ff ff ff ff  ................
	0x00a0 ff ff 00 00 00 00 00 00 00 00 00 00 00 00 00 00  ................
	0x00b0 00 00 1a 00 00 00 00 00 00 00 02 00 91 10 00 00  ................
	0x00c0 00 00 00 00 00 00 00 00 00 00 00 00 00 00        ..............
	rel 8+8 t=1 "".SubR<1>+0
	rel 59+8 t=1 "".SubR<1>+0
	rel 110+8 t=1 "".SubR<1>+0
	rel 162+8 t=1 "".SubR<1>+0
aux for "".SubR<0> SDWARFLINES size=28
	0x0000 00 09 02 00 00 00 00 00 00 00 00 04 02 03 bf 04  ................
	0x0010 14 06 41 06 a6 06 41 02 01 00 01 01              ..A...A.....
	rel 3+8 t=1 "".SubR<1>+0
aux for "".SubR<0> SDWARFFCN size=122
	0x0000 03 63 6f 6d 6d 61 6e 64 2d 6c 69 6e 65 2d 61 72  .command-line-ar
	0x0010 67 75 6d 65 6e 74 73 2e 53 75 62 52 00 00 00 00  guments.SubR....
	0x0020 00 00 00 00 00 00 00 00 00 00 00 00 00 01 9c 02  ................
	0x0030 00 00 00 01 0b 72 00 c5 04 00 00 00 00 00 00 00  .....r..........
	0x0040 00 10 78 00 00 c1 04 00 00 00 00 00 00 00 00 10  ..x.............
	0x0050 79 00 00 c1 04 00 00 00 00 00 00 00 00 10 63 69  y.............ci
	0x0060 00 00 c1 04 00 00 00 00 00 00 00 00 0f 7e 72 33  .............~r3
	0x0070 00 01 c1 04 00 00 00 00 00 00                    ..........
	rel 0+0 t=24 type.uint<0>+0
	rel 29+8 t=1 "".SubR<1>+0
	rel 37+8 t=1 "".SubR<1>+26
	rel 57+4 t=31 go.info.uint<0>+0
	rel 61+4 t=31 <0>+0
	rel 71+4 t=31 go.info.uint<0>+0
	rel 75+4 t=31 <0>+51
	rel 85+4 t=31 go.info.uint<0>+0
	rel 89+4 t=31 <0>+102
	rel 100+4 t=31 go.info.uint<0>+0
	rel 104+4 t=31 <0>+154
	rel 116+4 t=31 go.info.uint<0>+0
aux for "".SubM<0> SDWARFLOC size=155
	0x0000 ff ff ff ff ff ff ff ff 00 00 00 00 00 00 00 00  ................
	0x0010 00 00 00 00 00 00 00 00 3a 00 00 00 00 00 00 00  ........:.......
	0x0020 01 00 9c 00 00 00 00 00 00 00 00 00 00 00 00 00  ................
	0x0030 00 00 00 ff ff ff ff ff ff ff ff 00 00 00 00 00  ................
	0x0040 00 00 00 00 00 00 00 00 00 00 00 3a 00 00 00 00  ...........:....
	0x0050 00 00 00 02 00 91 08 00 00 00 00 00 00 00 00 00  ................
	0x0060 00 00 00 00 00 00 00 ff ff ff ff ff ff ff ff 00  ................
	0x0070 00 00 00 00 00 00 00 00 00 00 00 00 00 00 00 3a  ...............:
	0x0080 00 00 00 00 00 00 00 02 00 91 10 00 00 00 00 00  ................
	0x0090 00 00 00 00 00 00 00 00 00 00 00                 ...........
	rel 8+8 t=1 "".SubM<1>+0
	rel 59+8 t=1 "".SubM<1>+0
	rel 111+8 t=1 "".SubM<1>+0
aux for "".SubM<0> SDWARFLINES size=34
	0x0000 00 09 02 00 00 00 00 00 00 00 00 04 02 03 c4 04  ................
	0x0010 14 06 41 06 ef 06 37 06 7e 06 37 06 7e 02 01 00  ..A...7.~.7.~...
	0x0020 01 01                                            ..
	rel 3+8 t=1 "".SubM<1>+0
aux for "".SubM<0> SDWARFFCN size=95
	0x0000 03 63 6f 6d 6d 61 6e 64 2d 6c 69 6e 65 2d 61 72  .command-line-ar
	0x0010 67 75 6d 65 6e 74 73 2e 53 75 62 4d 00 00 00 00  guments.SubM....
	0x0020 00 00 00 00 00 00 00 00 00 00 00 00 00 01 9c 02  ................
	0x0030 00 00 00 01 10 70 00 00 c8 04 00 00 00 00 00 00  .....p..........
	0x0040 00 00 10 71 00 00 c8 04 00 00 00 00 00 00 00 00  ...q............
	0x0050 10 72 00 00 c8 04 00 00 00 00 00 00 00 00 00     .r.............
	rel 29+8 t=1 "".SubM<1>+0
	rel 37+8 t=1 "".SubM<1>+58
	rel 58+4 t=31 go.info.*[3]uint<0>+0
	rel 62+4 t=31 <0>+0
	rel 72+4 t=31 go.info.*[3]uint<0>+0
	rel 76+4 t=31 <0>+51
	rel 86+4 t=31 go.info.*[3]uint<0>+0
	rel 90+4 t=31 <0>+103
aux for "".Sub64<0> SDWARFLOC size=259
	0x0000 ff ff ff ff ff ff ff ff 00 00 00 00 00 00 00 00  ................
	0x0010 00 00 00 00 00 00 00 00 25 00 00 00 00 00 00 00  ........%.......
	0x0020 01 00 9c 00 00 00 00 00 00 00 00 00 00 00 00 00  ................
	0x0030 00 00 00 ff ff ff ff ff ff ff ff 00 00 00 00 00  ................
	0x0040 00 00 00 00 00 00 00 00 00 00 00 25 00 00 00 00  ...........%....
	0x0050 00 00 00 02 00 91 08 00 00 00 00 00 00 00 00 00  ................
	0x0060 00 00 00 00 00 00 00 ff ff ff ff ff ff ff ff 00  ................
	0x0070 00 00 00 00 00 00 00 00 00 00 00 00 00 00 00 25  ...............%
	0x0080 00 00 00 00 00 00 00 02 00 91 10 00 00 00 00 00  ................
	0x0090 00 00 00 00 00 00 00 00 00 00 00 ff ff ff ff ff  ................
	0x00a0 ff ff ff 00 00 00 00 00 00 00 00 19 00 00 00 00  ................
	0x00b0 00 00 00 25 00 00 00 00 00 00 00 02 00 91 18 00  ...%............
	0x00c0 00 00 00 00 00 00 00 00 00 00 00 00 00 00 00 ff  ................
	0x00d0 ff ff ff ff ff ff ff 00 00 00 00 00 00 00 00 1c  ................
	0x00e0 00 00 00 00 00 00 00 25 00 00 00 00 00 00 00 02  .......%........
	0x00f0 00 91 20 00 00 00 00 00 00 00 00 00 00 00 00 00  .. .............
	0x0100 00 00 00                                         ...
	rel 8+8 t=1 "".Sub64<1>+0
	rel 59+8 t=1 "".Sub64<1>+0
	rel 111+8 t=1 "".Sub64<1>+0
	rel 163+8 t=1 "".Sub64<1>+0
	rel 215+8 t=1 "".Sub64<1>+0
aux for "".Sub64<0> SDWARFLINES size=24
	0x0000 00 09 02 00 00 00 00 00 00 00 00 04 02 03 d0 04  ................
	0x0010 14 06 41 02 20 00 01 01                          ..A. ...
	rel 3+8 t=1 "".Sub64<1>+0
aux for "".Sub64<0> SDWARFFCN size=126
	0x0000 03 63 6f 6d 6d 61 6e 64 2d 6c 69 6e 65 2d 61 72  .command-line-ar
	0x0010 67 75 6d 65 6e 74 73 2e 53 75 62 36 34 00 00 00  guments.Sub64...
	0x0020 00 00 00 00 00 00 00 00 00 00 00 00 00 00 01 9c  ................
	0x0030 02 00 00 00 01 10 78 00 00 d2 04 00 00 00 00 00  ......x.........
	0x0040 00 00 00 10 79 00 00 d2 04 00 00 00 00 00 00 00  ....y...........
	0x0050 00 10 63 69 00 00 d2 04 00 00 00 00 00 00 00 00  ..ci............
	0x0060 10 72 00 01 d2 04 00 00 00 00 00 00 00 00 10 63  .r.............c
	0x0070 6f 00 01 d2 04 00 00 00 00 00 00 00 00 00        o.............
	rel 30+8 t=1 "".Sub64<1>+0
	rel 38+8 t=1 "".Sub64<1>+37
	rel 59+4 t=31 go.info.uint64<0>+0
	rel 63+4 t=31 <0>+0
	rel 73+4 t=31 go.info.uint64<0>+0
	rel 77+4 t=31 <0>+51
	rel 88+4 t=31 go.info.uint64<0>+0
	rel 92+4 t=31 <0>+103
	rel 102+4 t=31 go.info.uint64<0>+0
	rel 106+4 t=31 <0>+155
	rel 117+4 t=31 go.info.uint64<0>+0
	rel 121+4 t=31 <0>+207
aux for "".Sub64C<0> SDWARFLOC size=207
	0x0000 ff ff ff ff ff ff ff ff 00 00 00 00 00 00 00 00  ................
	0x0010 00 00 00 00 00 00 00 00 21 00 00 00 00 00 00 00  ........!.......
	0x0020 01 00 9c 00 00 00 00 00 00 00 00 00 00 00 00 00  ................
	0x0030 00 00 00 ff ff ff ff ff ff ff ff 00 00 00 00 00  ................
	0x0040 00 00 00 00 00 00 00 00 00 00 00 21 00 00 00 00  ...........!....
	0x0050 00 00 00 02 00 91 08 00 00 00 00 00 00 00 00 00  ................
	0x0060 00 00 00 00 00 00 00 ff ff ff ff ff ff ff ff 00  ................
	0x0070 00 00 00 00 00 00 00 15 00 00 00 00 00 00 00 21  ...............!
	0x0080 00 00 00 00 00 00 00 02 00 91 10 00 00 00 00 00  ................
	0x0090 00 00 00 00 00 00 00 00 00 00 00 ff ff ff ff ff  ................
	0x00a0 ff ff ff 00 00 00 00 00 00 00 00 18 00 00 00 00  ................
	0x00b0 00 00 00 21 00 00 00 00 00 00 00 02 00 91 18 00  ...!............
	0x00c0 00 00 00 00 00 00 00 00 00 00 00 00 00 00 00     ...............
	rel 8+8 t=1 "".Sub64C<1>+0
	rel 59+8 t=1 "".Sub64C<1>+0
	rel 111+8 t=1 "".Sub64C<1>+0
	rel 163+8 t=1 "".Sub64C<1>+0
aux for "".Sub64C<0> SDWARFLINES size=24
	0x0000 00 09 02 00 00 00 00 00 00 00 00 04 02 03 d7 04  ................
	0x0010 14 06 41 02 1c 00 01 01                          ..A.....
	rel 3+8 t=1 "".Sub64C<1>+0
aux for "".Sub64C<0> SDWARFFCN size=113
	0x0000 03 63 6f 6d 6d 61 6e 64 2d 6c 69 6e 65 2d 61 72  .command-line-ar
	0x0010 67 75 6d 65 6e 74 73 2e 53 75 62 36 34 43 00 00  guments.Sub64C..
	0x0020 00 00 00 00 00 00 00 00 00 00 00 00 00 00 00 01  ................
	0x0030 9c 02 00 00 00 01 10 78 00 00 d9 04 00 00 00 00  .......x........
	0x0040 00 00 00 00 10 63 69 00 00 d9 04 00 00 00 00 00  .....ci.........
	0x0050 00 00 00 10 72 00 01 d9 04 00 00 00 00 00 00 00  ....r...........
	0x0060 00 10 63 6f 00 01 d9 04 00 00 00 00 00 00 00 00  ..co............
	0x0070 00                                               .
	rel 31+8 t=1 "".Sub64C<1>+0
	rel 39+8 t=1 "".Sub64C<1>+33
	rel 60+4 t=31 go.info.uint64<0>+0
	rel 64+4 t=31 <0>+0
	rel 75+4 t=31 go.info.uint64<0>+0
	rel 79+4 t=31 <0>+51
	rel 89+4 t=31 go.info.uint64<0>+0
	rel 93+4 t=31 <0>+103
	rel 104+4 t=31 go.info.uint64<0>+0
	rel 108+4 t=31 <0>+155
aux for "".Sub64Z<0> SDWARFLOC size=207
	0x0000 ff ff ff ff ff ff ff ff 00 00 00 00 00 00 00 00  ................
	0x0010 00 00 00 00 00 00 00 00 1e 00 00 00 00 00 00 00  ................
	0x0020 01 00 9c 00 00 00 00 00 00 00 00 00 00 00 00 00  ................
	0x0030 00 00 00 ff ff ff ff ff ff ff ff 00 00 00 00 00  ................
	0x0040 00 00 00 00 00 00 00 00 00 00 00 1e 00 00 00 00  ................
	0x0050 00 00 00 02 00 91 08 00 00 00 00 00 00 00 00 00  ................
	0x0060 00 00 00 00 00 00 00 ff ff ff ff ff ff ff ff 00  ................
	0x0070 00 00 00 00 00 00 00 12 00 00 00 00 00 00 00 1e  ................
	0x0080 00 00 00 00 00 00 00 02 00 91 10 00 00 00 00 00  ................
	0x0090 00 00 00 00 00 00 00 00 00 00 00 ff ff ff ff ff  ................
	0x00a0 ff ff ff 00 00 00 00 00 00 00 00 15 00 00 00 00  ................
	0x00b0 00 00 00 1e 00 00 00 00 00 00 00 02 00 91 18 00  ................
	0x00c0 00 00 00 00 00 00 00 00 00 00 00 00 00 00 00     ...............
	rel 8+8 t=1 "".Sub64Z<1>+0
	rel 59+8 t=1 "".Sub64Z<1>+0
	rel 111+8 t=1 "".Sub64Z<1>+0
	rel 163+8 t=1 "".Sub64Z<1>+0
aux for "".Sub64Z<0> SDWARFLINES size=24
	0x0000 00 09 02 00 00 00 00 00 00 00 00 04 02 03 de 04  ................
	0x0010 14 06 41 02 19 00 01 01                          ..A.....
	rel 3+8 t=1 "".Sub64Z<1>+0
aux for "".Sub64Z<0> SDWARFFCN size=112
	0x0000 03 63 6f 6d 6d 61 6e 64 2d 6c 69 6e 65 2d 61 72  .command-line-ar
	0x0010 67 75 6d 65 6e 74 73 2e 53 75 62 36 34 5a 00 00  guments.Sub64Z..
	0x0020 00 00 00 00 00 00 00 00 00 00 00 00 00 00 00 01  ................
	0x0030 9c 02 00 00 00 01 10 78 00 00 e0 04 00 00 00 00  .......x........
	0x0040 00 00 00 00 10 79 00 00 e0 04 00 00 00 00 00 00  .....y..........
	0x0050 00 00 10 72 00 01 e0 04 00 00 00 00 00 00 00 00  ...r............
	0x0060 10 63 6f 00 01 e0 04 00 00 00 00 00 00 00 00 00  .co.............
	rel 31+8 t=1 "".Sub64Z<1>+0
	rel 39+8 t=1 "".Sub64Z<1>+30
	rel 60+4 t=31 go.info.uint64<0>+0
	rel 64+4 t=31 <0>+0
	rel 74+4 t=31 go.info.uint64<0>+0
	rel 78+4 t=31 <0>+51
	rel 88+4 t=31 go.info.uint64<0>+0
	rel 92+4 t=31 <0>+103
	rel 103+4 t=31 go.info.uint64<0>+0
	rel 107+4 t=31 <0>+155
aux for "".Sub64R<0> SDWARFLOC size=206
	0x0000 ff ff ff ff ff ff ff ff 00 00 00 00 00 00 00 00  ................
	0x0010 19 00 00 00 00 00 00 00 1a 00 00 00 00 00 00 00  ................
	0x0020 01 00 50 00 00 00 00 00 00 00 00 00 00 00 00 00  ..P.............
	0x0030 00 00 00 ff ff ff ff ff ff ff ff 00 00 00 00 00  ................
	0x0040 00 00 00 00 00 00 00 00 00 00 00 1a 00 00 00 00  ................
	0x0050 00 00 00 01 00 9c 00 00 00 00 00 00 00 00 00 00  ................
	0x0060 00 00 00 00 00 00 ff ff ff ff ff ff ff ff 00 00  ................
	0x0070 00 00 00 00 00 00 00 00 00 00 00 00 00 00 1a 00  ................
	0x0080 00 00 00 00 00 00 02 00 91 08 00 00 00 00 00 00  ................
	0x0090 00 00 00 00 00 00 00 00 00 00 ff ff ff ff ff ff  ................
	0x00a0 ff ff 00 00 00 00 00 00 00 00 00 00 00 00 00 00  ................
	0x00b0 00 00 1a 00 00 00 00 00 00 00 02 00 91 10 00 00  ................
	0x00c0 00 00 00 00 00 00 00 00 00 00 00 00 00 00        ..............
	rel 8+8 t=1 "".Sub64R<1>+0
	rel 59+8 t=1 "".Sub64R<1>+0
	rel 110+8 t=1 "".Sub64R<1>+0
	rel 162+8 t=1 "".Sub64R<1>+0
aux for "".Sub64R<0> SDWARFLINES size=28
	0x0000 00 09 02 00 00 00 00 00 00 00 00 04 02 03 e5 04  ................
	0x0010 14 06 41 06 a6 06 41 02 01 00 01 01              ..A...A.....
	rel 3+8 t=1 "".Sub64R<1>+0
aux for "".Sub64R<0> SDWARFFCN size=124
	0x0000 03 63 6f 6d 6d 61 6e 64 2d 6c 69 6e 65 2d 61 72  .command-line-ar
	0x0010 67 75 6d 65 6e 74 73 2e 53 75 62 36 34 52 00 00  guments.Sub64R..
	0x0020 00 00 00 00 00 00 00 00 00 00 00 00 00 00 00 01  ................
	0x0030 9c 02 00 00 00 01 0b 72 00 eb 04 00 00 00 00 00  .......r........
	0x0040 00 00 00 10 78 00 00 e7 04 00 00 00 00 00 00 00  ....x...........
	0x0050 00 10 79 00 00 e7 04 00 00 00 00 00 00 00 00 10  ..y.............
	0x0060 63 69 00 00 e7 04 00 00 00 00 00 00 00 00 0f 7e  ci.............~
	0x0070 72 33 00 01 e7 04 00 00 00 00 00 00              r3..........
	rel 0+0 t=24 type.uint64<0>+0
	rel 31+8 t=1 "".Sub64R<1>+0
	rel 39+8 t=1 "".Sub64R<1>+26
	rel 59+4 t=31 go.info.uint64<0>+0
	rel 63+4 t=31 <0>+0
	rel 73+4 t=31 go.info.uint64<0>+0
	rel 77+4 t=31 <0>+51
	rel 87+4 t=31 go.info.uint64<0>+0
	rel 91+4 t=31 <0>+102
	rel 102+4 t=31 go.info.uint64<0>+0
	rel 106+4 t=31 <0>+154
	rel 118+4 t=31 go.info.uint64<0>+0
aux for "".Sub64M<0> SDWARFLOC size=155
	0x0000 ff ff ff ff ff ff ff ff 00 00 00 00 00 00 00 00  ................
	0x0010 00 00 00 00 00 00 00 00 3a 00 00 00 00 00 00 00  ........:.......
	0x0020 01 00 9c 00 00 00 00 00 00 00 00 00 00 00 00 00  ................
	0x0030 00 00 00 ff ff ff ff ff ff ff ff 00 00 00 00 00  ................
	0x0040 00 00 00 00 00 00 00 00 00 00 00 3a 00 00 00 00  ...........:....
	0x0050 00 00 00 02 00 91 08 00 00 00 00 00 00 00 00 00  ................
	0x0060 00 00 00 00 00 00 00 ff ff ff ff ff ff ff ff 00  ................
	0x0070 00 00 00 00 00 00 00 00 00 00 00 00 00 00 00 3a  ...............:
	0x0080 00 00 00 00 00 00 00 02 00 91 10 00 00 00 00 00  ................
	0x0090 00 00 00 00 00 00 00 00 00 00 00                 ...........
	rel 8+8 t=1 "".Sub64M<1>+0
	rel 59+8 t=1 "".Sub64M<1>+0
	rel 111+8 t=1 "".Sub64M<1>+0
aux for "".Sub64M<0> SDWARFLINES size=34
	0x0000 00 09 02 00 00 00 00 00 00 00 00 04 02 03 ea 04  ................
	0x0010 14 06 41 06 ef 06 37 06 7e 06 37 06 7e 02 01 00  ..A...7.~.7.~...
	0x0020 01 01                                            ..
	rel 3+8 t=1 "".Sub64M<1>+0
aux for "".Sub64M<0> SDWARFFCN size=97
	0x0000 03 63 6f 6d 6d 61 6e 64 2d 6c 69 6e 65 2d 61 72  .command-line-ar
	0x0010 67 75 6d 65 6e 74 73 2e 53 75 62 36 34 4d 00 00  guments.Sub64M..
	0x0020 00 00 00 00 00 00 00 00 00 00 00 00 00 00 00 01  ................
	0x0030 9c 02 00 00 00 01 10 70 00 00 ee 04 00 00 00 00  .......p........
	0x0040 00 00 00 00 10 71 00 00 ee 04 00 00 00 00 00 00  .....q..........
	0x0050 00 00 10 72 00 00 ee 04 00 00 00 00 00 00 00 00  ...r............
	0x0060 00                                               .
	rel 31+8 t=1 "".Sub64M<1>+0
	rel 39+8 t=1 "".Sub64M<1>+58
	rel 60+4 t=31 go.info.*[3]uint64<0>+0
	rel 64+4 t=31 <0>+0
	rel 74+4 t=31 go.info.*[3]uint64<0>+0
	rel 78+4 t=31 <0>+51
	rel 88+4 t=31 go.info.*[3]uint64<0>+0
	rel 92+4 t=31 <0>+103
aux for "".Sub64PanicOnOverflowEQ<0> SDWARFLOC size=154
	0x0000 ff ff ff ff ff ff ff ff 00 00 00 00 00 00 00 00  ................
	0x0010 2d 00 00 00 00 00 00 00 4c 00 00 00 00 00 00 00  -.......L.......
	0x0020 01 00 50 00 00 00 00 00 00 00 00 00 00 00 00 00  ..P.............
	0x0030 00 00 00 ff ff ff ff ff ff ff ff 00 00 00 00 00  ................
	0x0040 00 00 00 00 00 00 00 00 00 00 00 6d 00 00 00 00  ...........m....
	0x0050 00 00 00 01 00 9c 00 00 00 00 00 00 00 00 00 00  ................
	0x0060 00 00 00 00 00 00 ff ff ff ff ff ff ff ff 00 00  ................
	0x0070 00 00 00 00 00 00 00 00 00 00 00 00 00 00 6d 00  ..............m.
	0x0080 00 00 00 00 00 00 02 00 91 08 00 00 00 00 00 00  ................
	0x0090 00 00 00 00 00 00 00 00 00 00                    ..........
	rel 8+8 t=1 "".Sub64PanicOnOverflowEQ<1>+0
	rel 59+8 t=1 "".Sub64PanicOnOverflowEQ<1>+0
	rel 110+8 t=1 "".Sub64PanicOnOverflowEQ<1>+0
aux for "".Sub64PanicOnOverflowEQ<0> SDWARFLINES size=42
	0x0000 00 09 02 00 00 00 00 00 00 00 00 04 02 03 f2 04  ................
	0x0010 14 0a a5 9c 06 41 06 9d 06 37 06 26 06 41 06 71  .....A...7.&.A.q
	0x0020 06 55 06 d7 47 02 07 00 01 01                    .U..G.....
	rel 3+8 t=1 "".Sub64PanicOnOverflowEQ<1>+0
aux for "".Sub64PanicOnOverflowEQ<0> SDWARFFCN size=125
	0x0000 03 63 6f 6d 6d 61 6e 64 2d 6c 69 6e 65 2d 61 72  .command-line-ar
	0x0010 67 75 6d 65 6e 74 73 2e 53 75 62 36 34 50 61 6e  guments.Sub64Pan
	0x0020 69 63 4f 6e 4f 76 65 72 66 6c 6f 77 45 51 00 00  icOnOverflowEQ..
	0x0030 00 00 00 00 00 00 00 00 00 00 00 00 00 00 00 01  ................
	0x0040 9c 02 00 00 00 01 0b 72 00 f9 04 00 00 00 00 00  .......r........
	0x0050 00 00 00 10 61 00 00 f8 04 00 00 00 00 00 00 00  ....a...........
	0x0060 00 10 62 00 00 f8 04 00 00 00 00 00 00 00 00 0f  ..b.............
	0x0070 7e 72 32 00 01 f8 04 00 00 00 00 00 00           ~r2..........
	rel 0+0 t=24 type.uint64<0>+0
	rel 47+8 t=1 "".Sub64PanicOnOverflowEQ<1>+0
	rel 55+8 t=1 "".Sub64PanicOnOverflowEQ<1>+109
	rel 75+4 t=31 go.info.uint64<0>+0
	rel 79+4 t=31 <0>+0
	rel 89+4 t=31 go.info.uint64<0>+0
	rel 93+4 t=31 <0>+51
	rel 103+4 t=31 go.info.uint64<0>+0
	rel 107+4 t=31 <0>+102
	rel 119+4 t=31 go.info.uint64<0>+0
aux for "".Sub64PanicOnOverflowNE<0> SDWARFLOC size=154
	0x0000 ff ff ff ff ff ff ff ff 00 00 00 00 00 00 00 00  ................
	0x0010 2d 00 00 00 00 00 00 00 4b 00 00 00 00 00 00 00  -.......K.......
	0x0020 01 00 50 00 00 00 00 00 00 00 00 00 00 00 00 00  ..P.............
	0x0030 00 00 00 ff ff ff ff ff ff ff ff 00 00 00 00 00  ................
	0x0040 00 00 00 00 00 00 00 00 00 00 00 6d 00 00 00 00  ...........m....
	0x0050 00 00 00 01 00 9c 00 00 00 00 00 00 00 00 00 00  ................
	0x0060 00 00 00 00 00 00 ff ff ff ff ff ff ff ff 00 00  ................
	0x0070 00 00 00 00 00 00 00 00 00 00 00 00 00 00 6d 00  ..............m.
	0x0080 00 00 00 00 00 00 02 00 91 08 00 00 00 00 00 00  ................
	0x0090 00 00 00 00 00 00 00 00 00 00                    ..........
	rel 8+8 t=1 "".Sub64PanicOnOverflowNE<1>+0
	rel 59+8 t=1 "".Sub64PanicOnOverflowNE<1>+0
	rel 110+8 t=1 "".Sub64PanicOnOverflowNE<1>+0
aux for "".Sub64PanicOnOverflowNE<0> SDWARFLINES size=42
	0x0000 00 09 02 00 00 00 00 00 00 00 00 04 02 03 fb 04  ................
	0x0010 14 0a a5 9c 06 41 06 9d 06 2d 06 26 06 41 06 71  .....A...-.&.A.q
	0x0020 06 55 06 e1 47 02 07 00 01 01                    .U..G.....
	rel 3+8 t=1 "".Sub64PanicOnOverflowNE<1>+0
aux for "".Sub64PanicOnOverflowNE<0> SDWARFFCN size=125
	0x0000 03 63 6f 6d 6d 61 6e 64 2d 6c 69 6e 65 2d 61 72  .command-line-ar
	0x0010 67 75 6d 65 6e 74 73 2e 53 75 62 36 34 50 61 6e  guments.Sub64Pan
	0x0020 69 63 4f 6e 4f 76 65 72 66 6c 6f 77 4e 45 00 00  icOnOverflowNE..
	0x0030 00 00 00 00 00 00 00 00 00 00 00 00 00 00 00 01  ................
	0x0040 9c 02 00 00 00 01 0b 72 00 82 05 00 00 00 00 00  .......r........
	0x0050 00 00 00 10 61 00 00 81 05 00 00 00 00 00 00 00  ....a...........
	0x0060 00 10 62 00 00 81 05 00 00 00 00 00 00 00 00 0f  ..b.............
	0x0070 7e 72 32 00 01 81 05 00 00 00 00 00 00           ~r2..........
	rel 0+0 t=24 type.uint64<0>+0
	rel 47+8 t=1 "".Sub64PanicOnOverflowNE<1>+0
	rel 55+8 t=1 "".Sub64PanicOnOverflowNE<1>+109
	rel 75+4 t=31 go.info.uint64<0>+0
	rel 79+4 t=31 <0>+0
	rel 89+4 t=31 go.info.uint64<0>+0
	rel 93+4 t=31 <0>+51
	rel 103+4 t=31 go.info.uint64<0>+0
	rel 107+4 t=31 <0>+102
	rel 119+4 t=31 go.info.uint64<0>+0
aux for "".Sub64PanicOnOverflowGT<0> SDWARFLOC size=154
	0x0000 ff ff ff ff ff ff ff ff 00 00 00 00 00 00 00 00  ................
	0x0010 2d 00 00 00 00 00 00 00 4b 00 00 00 00 00 00 00  -.......K.......
	0x0020 01 00 50 00 00 00 00 00 00 00 00 00 00 00 00 00  ..P.............
	0x0030 00 00 00 ff ff ff ff ff ff ff ff 00 00 00 00 00  ................
	0x0040 00 00 00 00 00 00 00 00 00 00 00 6d 00 00 00 00  ...........m....
	0x0050 00 00 00 01 00 9c 00 00 00 00 00 00 00 00 00 00  ................
	0x0060 00 00 00 00 00 00 ff ff ff ff ff ff ff ff 00 00  ................
	0x0070 00 00 00 00 00 00 00 00 00 00 00 00 00 00 6d 00  ..............m.
	0x0080 00 00 00 00 00 00 02 00 91 08 00 00 00 00 00 00  ................
	0x0090 00 00 00 00 00 00 00 00 00 00                    ..........
	rel 8+8 t=1 "".Sub64PanicOnOverflowGT<1>+0
	rel 59+8 t=1 "".Sub64PanicOnOverflowGT<1>+0
	rel 110+8 t=1 "".Sub64PanicOnOverflowGT<1>+0
aux for "".Sub64PanicOnOverflowGT<0> SDWARFLINES size=42
	0x0000 00 09 02 00 00 00 00 00 00 00 00 04 02 03 84 05  ................
	0x0010 14 0a a5 9c 06 41 06 9d 06 2d 06 26 06 41 06 71  .....A...-.&.A.q
	0x0020 06 55 06 e1 47 02 07 00 01 01                    .U..G.....
	rel 3+8 t=1 "".Sub64PanicOnOverflowGT<1>+0
aux for "".Sub64PanicOnOverflowGT<0> SDWARFFCN size=125
	0x0000 03 63 6f 6d 6d 61 6e 64 2d 6c 69 6e 65 2d 61 72  .command-line-ar
	0x0010 67 75 6d 65 6e 74 73 2e 53 75 62 36 34 50 61 6e  guments.Sub64Pan
	0x0020 69 63 4f 6e 4f 76 65 72 66 6c 6f 77 47 54 00 00  icOnOverflowGT..
	0x0030 00 00 00 00 00 00 00 00 00 00 00 00 00 00 00 01  ................
	0x0040 9c 02 00 00 00 01 0b 72 00 8b 05 00 00 00 00 00  .......r........
	0x0050 00 00 00 10 61 00 00 8a 05 00 00 00 00 00 00 00  ....a...........
	0x0060 00 10 62 00 00 8a 05 00 00 00 00 00 00 00 00 0f  ..b.............
	0x0070 7e 72 32 00 01 8a 05 00 00 00 00 00 00           ~r2..........
	rel 0+0 t=24 type.uint64<0>+0
	rel 47+8 t=1 "".Sub64PanicOnOverflowGT<1>+0
	rel 55+8 t=1 "".Sub64PanicOnOverflowGT<1>+109
	rel 75+4 t=31 go.info.uint64<0>+0
	rel 79+4 t=31 <0>+0
	rel 89+4 t=31 go.info.uint64<0>+0
	rel 93+4 t=31 <0>+51
	rel 103+4 t=31 go.info.uint64<0>+0
	rel 107+4 t=31 <0>+102
	rel 119+4 t=31 go.info.uint64<0>+0
aux for "".Sub64MPanicOnOverflowEQ<0> SDWARFLOC size=51
	0x0000 ff ff ff ff ff ff ff ff 00 00 00 00 00 00 00 00  ................
	0x0010 45 00 00 00 00 00 00 00 7b 00 00 00 00 00 00 00  E.......{.......
	0x0020 01 00 51 00 00 00 00 00 00 00 00 00 00 00 00 00  ..Q.............
	0x0030 00 00 00                                         ...
	rel 8+8 t=1 "".Sub64MPanicOnOverflowEQ<1>+0
aux for "".Sub64MPanicOnOverflowEQ<0> SDWARFLINES size=54
	0x0000 00 09 02 00 00 00 00 00 00 00 00 04 02 03 8d 05  ................
	0x0010 14 0a a5 06 b9 06 44 06 41 06 60 06 41 06 9d 06  ......D.A.`.A...
	0x0020 37 06 26 06 41 06 a3 06 55 06 af 06 03 7d 47 06  7.&.A...U....}G.
	0x0030 37 02 0a 00 01 01                                7.....
	rel 3+8 t=1 "".Sub64MPanicOnOverflowEQ<1>+0
aux for "".Sub64MPanicOnOverflowEQ<0> SDWARFFCN size=123
	0x0000 03 63 6f 6d 6d 61 6e 64 2d 6c 69 6e 65 2d 61 72  .command-line-ar
	0x0010 67 75 6d 65 6e 74 73 2e 53 75 62 36 34 4d 50 61  guments.Sub64MPa
	0x0020 6e 69 63 4f 6e 4f 76 65 72 66 6c 6f 77 45 51 00  nicOnOverflowEQ.
	0x0030 00 00 00 00 00 00 00 00 00 00 00 00 00 00 00 00  ................
	0x0040 01 9c 02 00 00 00 01 0b 63 00 95 05 00 00 00 00  ........c.......
	0x0050 00 00 00 00 0f 61 00 00 93 05 00 00 00 00 01 9c  .....a..........
	0x0060 0f 62 00 00 93 05 00 00 00 00 02 91 10 0f 7e 72  .b............~r
	0x0070 32 00 01 93 05 00 00 00 00 00 00                 2..........
	rel 0+0 t=24 type.[2]uint64<0>+0
	rel 48+8 t=1 "".Sub64MPanicOnOverflowEQ<1>+0
	rel 56+8 t=1 "".Sub64MPanicOnOverflowEQ<1>+138
	rel 76+4 t=31 go.info.uint64<0>+0
	rel 80+4 t=31 <0>+0
	rel 90+4 t=31 go.info.[2]uint64<0>+0
	rel 102+4 t=31 go.info.[2]uint64<0>+0
	rel 117+4 t=31 go.info.[2]uint64<0>+0
aux for "".Sub64MPanicOnOverflowNE<0> SDWARFLOC size=51
	0x0000 ff ff ff ff ff ff ff ff 00 00 00 00 00 00 00 00  ................
	0x0010 45 00 00 00 00 00 00 00 7a 00 00 00 00 00 00 00  E.......z.......
	0x0020 01 00 51 00 00 00 00 00 00 00 00 00 00 00 00 00  ..Q.............
	0x0030 00 00 00                                         ...
	rel 8+8 t=1 "".Sub64MPanicOnOverflowNE<1>+0
aux for "".Sub64MPanicOnOverflowNE<0> SDWARFLINES size=54
	0x0000 00 09 02 00 00 00 00 00 00 00 00 04 02 03 99 05  ................
	0x0010 14 0a a5 06 b9 06 44 06 41 06 60 06 41 06 9d 06  ......D.A.`.A...
	0x0020 2d 06 26 06 41 06 a3 06 55 06 af 06 03 7d 47 06  -.&.A...U....}G.
	0x0030 41 02 0a 00 01 01                                A.....
	rel 3+8 t=1 "".Sub64MPanicOnOverflowNE<1>+0
aux for "".Sub64MPanicOnOverflowNE<0> SDWARFFCN size=123
	0x0000 03 63 6f 6d 6d 61 6e 64 2d 6c 69 6e 65 2d 61 72  .command-line-ar
	0x0010 67 75 6d 65 6e 74 73 2e 53 75 62 36 34 4d 50 61  guments.Sub64MPa
	0x0020 6e 69 63 4f 6e 4f 76 65 72 66 6c 6f 77 4e 45 00  nicOnOverflowNE.
	0x0030 00 00 00 00 00 00 00 00 00 00 00 00 00 00 00 00  ................
	0x0040 01 9c 02 00 00 00 01 0b 63 00 a1 05 00 00 00 00  ........c.......
	0x0050 00 00 00 00 0f 61 00 00 9f 05 00 00 00 00 01 9c  .....a..........
	0x0060 0f 62 00 00 9f 05 00 00 00 00 02 91 10 0f 7e 72  .b............~r
	0x0070 32 00 01 9f 05 00 00 00 00 00 00                 2..........
	rel 0+0 t=24 type.[2]uint64<0>+0
	rel 48+8 t=1 "".Sub64MPanicOnOverflowNE<1>+0
	rel 56+8 t=1 "".Sub64MPanicOnOverflowNE<1>+138
	rel 76+4 t=31 go.info.uint64<0>+0
	rel 80+4 t=31 <0>+0
	rel 90+4 t=31 go.info.[2]uint64<0>+0
	rel 102+4 t=31 go.info.[2]uint64<0>+0
	rel 117+4 t=31 go.info.[2]uint64<0>+0
aux for "".Sub64MPanicOnOverflowGT<0> SDWARFLOC size=51
	0x0000 ff ff ff ff ff ff ff ff 00 00 00 00 00 00 00 00  ................
	0x0010 45 00 00 00 00 00 00 00 7a 00 00 00 00 00 00 00  E.......z.......
	0x0020 01 00 51 00 00 00 00 00 00 00 00 00 00 00 00 00  ..Q.............
	0x0030 00 00 00                                         ...
	rel 8+8 t=1 "".Sub64MPanicOnOverflowGT<1>+0
aux for "".Sub64MPanicOnOverflowGT<0> SDWARFLINES size=54
	0x0000 00 09 02 00 00 00 00 00 00 00 00 04 02 03 a5 05  ................
	0x0010 14 0a a5 06 b9 06 44 06 41 06 60 06 41 06 9d 06  ......D.A.`.A...
	0x0020 2d 06 26 06 41 06 a3 06 55 06 af 06 03 7d 47 06  -.&.A...U....}G.
	0x0030 41 02 0a 00 01 01                                A.....
	rel 3+8 t=1 "".Sub64MPanicOnOverflowGT<1>+0
aux for "".Sub64MPanicOnOverflowGT<0> SDWARFFCN size=123
	0x0000 03 63 6f 6d 6d 61 6e 64 2d 6c 69 6e 65 2d 61 72  .command-line-ar
	0x0010 67 75 6d 65 6e 74 73 2e 53 75 62 36 34 4d 50 61  guments.Sub64MPa
	0x0020 6e 69 63 4f 6e 4f 76 65 72 66 6c 6f 77 47 54 00  nicOnOverflowGT.
	0x0030 00 00 00 00 00 00 00 00 00 00 00 00 00 00 00 00  ................
	0x0040 01 9c 02 00 00 00 01 0b 63 00 ad 05 00 00 00 00  ........c.......
	0x0050 00 00 00 00 0f 61 00 00 ab 05 00 00 00 00 01 9c  .....a..........
	0x0060 0f 62 00 00 ab 05 00 00 00 00 02 91 10 0f 7e 72  .b............~r
	0x0070 32 00 01 ab 05 00 00 00 00 00 00                 2..........
	rel 0+0 t=24 type.[2]uint64<0>+0
	rel 48+8 t=1 "".Sub64MPanicOnOverflowGT<1>+0
	rel 56+8 t=1 "".Sub64MPanicOnOverflowGT<1>+138
	rel 76+4 t=31 go.info.uint64<0>+0
	rel 80+4 t=31 <0>+0
	rel 90+4 t=31 go.info.[2]uint64<0>+0
	rel 102+4 t=31 go.info.[2]uint64<0>+0
	rel 117+4 t=31 go.info.[2]uint64<0>+0
aux for "".Mul<0> SDWARFLOC size=207
	0x0000 ff ff ff ff ff ff ff ff 00 00 00 00 00 00 00 00  ................
	0x0010 00 00 00 00 00 00 00 00 18 00 00 00 00 00 00 00  ................
	0x0020 01 00 9c 00 00 00 00 00 00 00 00 00 00 00 00 00  ................
	0x0030 00 00 00 ff ff ff ff ff ff ff ff 00 00 00 00 00  ................
	0x0040 00 00 00 00 00 00 00 00 00 00 00 18 00 00 00 00  ................
	0x0050 00 00 00 02 00 91 08 00 00 00 00 00 00 00 00 00  ................
	0x0060 00 00 00 00 00 00 00 ff ff ff ff ff ff ff ff 00  ................
	0x0070 00 00 00 00 00 00 00 12 00 00 00 00 00 00 00 18  ................
	0x0080 00 00 00 00 00 00 00 02 00 91 10 00 00 00 00 00  ................
	0x0090 00 00 00 00 00 00 00 00 00 00 00 ff ff ff ff ff  ................
	0x00a0 ff ff ff 00 00 00 00 00 00 00 00 17 00 00 00 00  ................
	0x00b0 00 00 00 18 00 00 00 00 00 00 00 02 00 91 18 00  ................
	0x00c0 00 00 00 00 00 00 00 00 00 00 00 00 00 00 00     ...............
	rel 8+8 t=1 "".Mul<1>+0
	rel 59+8 t=1 "".Mul<1>+0
	rel 111+8 t=1 "".Mul<1>+0
	rel 163+8 t=1 "".Mul<1>+0
aux for "".Mul<0> SDWARFLINES size=24
	0x0000 00 09 02 00 00 00 00 00 00 00 00 04 02 03 bc 05  ................
	0x0010 14 06 41 02 13 00 01 01                          ..A.....
	rel 3+8 t=1 "".Mul<1>+0
aux for "".Mul<0> SDWARFFCN size=110
	0x0000 03 63 6f 6d 6d 61 6e 64 2d 6c 69 6e 65 2d 61 72  .command-line-ar
	0x0010 67 75 6d 65 6e 74 73 2e 4d 75 6c 00 00 00 00 00  guments.Mul.....
	0x0020 00 00 00 00 00 00 00 00 00 00 00 00 01 9c 02 00  ................
	0x0030 00 00 01 10 78 00 00 bb 05 00 00 00 00 00 00 00  ....x...........
	0x0040 00 10 79 00 00 bb 05 00 00 00 00 00 00 00 00 10  ..y.............
	0x0050 68 69 00 01 bb 05 00 00 00 00 00 00 00 00 10 6c  hi.............l
	0x0060 6f 00 01 bb 05 00 00 00 00 00 00 00 00 00        o.............
	rel 28+8 t=1 "".Mul<1>+0
	rel 36+8 t=1 "".Mul<1>+24
	rel 57+4 t=31 go.info.uint<0>+0
	rel 61+4 t=31 <0>+0
	rel 71+4 t=31 go.info.uint<0>+0
	rel 75+4 t=31 <0>+51
	rel 86+4 t=31 go.info.uint<0>+0
	rel 90+4 t=31 <0>+103
	rel 101+4 t=31 go.info.uint<0>+0
	rel 105+4 t=31 <0>+155
aux for "".Mul64<0> SDWARFLOC size=207
	0x0000 ff ff ff ff ff ff ff ff 00 00 00 00 00 00 00 00  ................
	0x0010 00 00 00 00 00 00 00 00 18 00 00 00 00 00 00 00  ................
	0x0020 01 00 9c 00 00 00 00 00 00 00 00 00 00 00 00 00  ................
	0x0030 00 00 00 ff ff ff ff ff ff ff ff 00 00 00 00 00  ................
	0x0040 00 00 00 00 00 00 00 00 00 00 00 18 00 00 00 00  ................
	0x0050 00 00 00 02 00 91 08 00 00 00 00 00 00 00 00 00  ................
	0x0060 00 00 00 00 00 00 00 ff ff ff ff ff ff ff ff 00  ................
	0x0070 00 00 00 00 00 00 00 12 00 00 00 00 00 00 00 18  ................
	0x0080 00 00 00 00 00 00 00 02 00 91 10 00 00 00 00 00  ................
	0x0090 00 00 00 00 00 00 00 00 00 00 00 ff ff ff ff ff  ................
	0x00a0 ff ff ff 00 00 00 00 00 00 00 00 17 00 00 00 00  ................
	0x00b0 00 00 00 18 00 00 00 00 00 00 00 02 00 91 18 00  ................
	0x00c0 00 00 00 00 00 00 00 00 00 00 00 00 00 00 00     ...............
	rel 8+8 t=1 "".Mul64<1>+0
	rel 59+8 t=1 "".Mul64<1>+0
	rel 111+8 t=1 "".Mul64<1>+0
	rel 163+8 t=1 "".Mul64<1>+0
aux for "".Mul64<0> SDWARFLINES size=24
	0x0000 00 09 02 00 00 00 00 00 00 00 00 04 02 03 c6 05  ................
	0x0010 14 06 41 02 13 00 01 01                          ..A.....
	rel 3+8 t=1 "".Mul64<1>+0
aux for "".Mul64<0> SDWARFFCN size=112
	0x0000 03 63 6f 6d 6d 61 6e 64 2d 6c 69 6e 65 2d 61 72  .command-line-ar
	0x0010 67 75 6d 65 6e 74 73 2e 4d 75 6c 36 34 00 00 00  guments.Mul64...
	0x0020 00 00 00 00 00 00 00 00 00 00 00 00 00 00 01 9c  ................
	0x0030 02 00 00 00 01 10 78 00 00 c5 05 00 00 00 00 00  ......x.........
	0x0040 00 00 00 10 79 00 00 c5 05 00 00 00 00 00 00 00  ....y...........
	0x0050 00 10 68 69 00 01 c5 05 00 00 00 00 00 00 00 00  ..hi............
	0x0060 10 6c 6f 00 01 c5 05 00 00 00 00 00 00 00 00 00  .lo.............
	rel 30+8 t=1 "".Mul64<1>+0
	rel 38+8 t=1 "".Mul64<1>+24
	rel 59+4 t=31 go.info.uint64<0>+0
	rel 63+4 t=31 <0>+0
	rel 73+4 t=31 go.info.uint64<0>+0
	rel 77+4 t=31 <0>+51
	rel 88+4 t=31 go.info.uint64<0>+0
	rel 92+4 t=31 <0>+103
	rel 103+4 t=31 go.info.uint64<0>+0
	rel 107+4 t=31 <0>+155
aux for "".Div<0> SDWARFLOC size=259
	0x0000 ff ff ff ff ff ff ff ff 00 00 00 00 00 00 00 00  ................
	0x0010 00 00 00 00 00 00 00 00 5c 00 00 00 00 00 00 00  ........\.......
	0x0020 01 00 9c 00 00 00 00 00 00 00 00 00 00 00 00 00  ................
	0x0030 00 00 00 ff ff ff ff ff ff ff ff 00 00 00 00 00  ................
	0x0040 00 00 00 00 00 00 00 00 00 00 00 5c 00 00 00 00  ...........\....
	0x0050 00 00 00 02 00 91 08 00 00 00 00 00 00 00 00 00  ................
	0x0060 00 00 00 00 00 00 00 ff ff ff ff ff ff ff ff 00  ................
	0x0070 00 00 00 00 00 00 00 00 00 00 00 00 00 00 00 5c  ...............\
	0x0080 00 00 00 00 00 00 00 02 00 91 10 00 00 00 00 00  ................
	0x0090 00 00 00 00 00 00 00 00 00 00 00 ff ff ff ff ff  ................
	0x00a0 ff ff ff 00 00 00 00 00 00 00 00 3c 00 00 00 00  ...........<....
	0x00b0 00 00 00 4f 00 00 00 00 00 00 00 02 00 91 18 00  ...O............
	0x00c0 00 00 00 00 00 00 00 00 00 00 00 00 00 00 00 ff  ................
	0x00d0 ff ff ff ff ff ff ff 00 00 00 00 00 00 00 00 41  ...............A
	0x00e0 00 00 00 00 00 00 00 4f 00 00 00 00 00 00 00 02  .......O........
	0x00f0 00 91 20 00 00 00 00 00 00 00 00 00 00 00 00 00  .. .............
	0x0100 00 00 00                                         ...
	rel 8+8 t=1 "".Div<1>+0
	rel 59+8 t=1 "".Div<1>+0
	rel 111+8 t=1 "".Div<1>+0
	rel 163+8 t=1 "".Div<1>+0
	rel 215+8 t=1 "".Div<1>+0
aux for "".Div<0> SDWARFLINES size=35
	0x0000 00 09 02 00 00 00 00 00 00 00 00 04 02 03 cd 05  ................
	0x0010 14 0a a5 89 06 41 06 a5 06 41 06 08 5f 17 02 07  .....A...A.._...
	0x0020 00 01 01                                         ...
	rel 3+8 t=1 "".Div<1>+0
aux for "".Div<0> SDWARFFCN size=124
	0x0000 03 63 6f 6d 6d 61 6e 64 2d 6c 69 6e 65 2d 61 72  .command-line-ar
	0x0010 67 75 6d 65 6e 74 73 2e 44 69 76 00 00 00 00 00  guments.Div.....
	0x0020 00 00 00 00 00 00 00 00 00 00 00 00 01 9c 02 00  ................
	0x0030 00 00 01 10 68 69 00 00 d3 05 00 00 00 00 00 00  ....hi..........
	0x0040 00 00 10 6c 6f 00 00 d3 05 00 00 00 00 00 00 00  ...lo...........
	0x0050 00 10 78 00 00 d3 05 00 00 00 00 00 00 00 00 10  ..x.............
	0x0060 71 00 01 d3 05 00 00 00 00 00 00 00 00 10 72 00  q.............r.
	0x0070 01 d3 05 00 00 00 00 00 00 00 00 00              ............
	rel 28+8 t=1 "".Div<1>+0
	rel 36+8 t=1 "".Div<1>+92
	rel 58+4 t=31 go.info.uint<0>+0
	rel 62+4 t=31 <0>+0
	rel 73+4 t=31 go.info.uint<0>+0
	rel 77+4 t=31 <0>+51
	rel 87+4 t=31 go.info.uint<0>+0
	rel 91+4 t=31 <0>+103
	rel 101+4 t=31 go.info.uint<0>+0
	rel 105+4 t=31 <0>+155
	rel 115+4 t=31 go.info.uint<0>+0
	rel 119+4 t=31 <0>+207
aux for "".Div32<0> SDWARFRANGE size=64
	0x0000 ff ff ff ff ff ff ff ff 00 00 00 00 00 00 00 00  ................
	0x0010 21 00 00 00 00 00 00 00 42 00 00 00 00 00 00 00  !.......B.......
	0x0020 54 00 00 00 00 00 00 00 87 00 00 00 00 00 00 00  T...............
	0x0030 00 00 00 00 00 00 00 00 00 00 00 00 00 00 00 00  ................
	rel 8+8 t=1 "".Div32<1>+0
aux for "".Div32<0> SDWARFLOC size=465
	0x0000 ff ff ff ff ff ff ff ff 00 00 00 00 00 00 00 00  ................
	0x0010 00 00 00 00 00 00 00 00 91 00 00 00 00 00 00 00  ................
	0x0020 01 00 9c 00 00 00 00 00 00 00 00 00 00 00 00 00  ................
	0x0030 00 00 00 ff ff ff ff ff ff ff ff 00 00 00 00 00  ................
	0x0040 00 00 00 00 00 00 00 00 00 00 00 91 00 00 00 00  ................
	0x0050 00 00 00 02 00 91 04 00 00 00 00 00 00 00 00 00  ................
	0x0060 00 00 00 00 00 00 00 ff ff ff ff ff ff ff ff 00  ................
	0x0070 00 00 00 00 00 00 00 00 00 00 00 00 00 00 00 91  ................
	0x0080 00 00 00 00 00 00 00 02 00 91 08 00 00 00 00 00  ................
	0x0090 00 00 00 00 00 00 00 00 00 00 00 ff ff ff ff ff  ................
	0x00a0 ff ff ff 00 00 00 00 00 00 00 00 46 00 00 00 00  ...........F....
	0x00b0 00 00 00 58 00 00 00 00 00 00 00 02 00 91 10 00  ...X............
	0x00c0 00 00 00 00 00 00 00 00 00 00 00 00 00 00 00 ff  ................
	0x00d0 ff ff ff ff ff ff ff 00 00 00 00 00 00 00 00 4a  ...............J
	0x00e0 00 00 00 00 00 00 00 58 00 00 00 00 00 00 00 02  .......X........
	0x00f0 00 91 14 00 00 00 00 00 00 00 00 00 00 00 00 00  ................
	0x0100 00 00 00 ff ff ff ff ff ff ff ff 00 00 00 00 00  ................
	0x0110 00 00 00 00 00 00 00 00 00 00 00 91 00 00 00 00  ................
	0x0120 00 00 00 01 00 9c 00 00 00 00 00 00 00 00 00 00  ................
	0x0130 00 00 00 00 00 00 ff ff ff ff ff ff ff ff 00 00  ................
	0x0140 00 00 00 00 00 00 00 00 00 00 00 00 00 00 91 00  ................
	0x0150 00 00 00 00 00 00 02 00 91 04 00 00 00 00 00 00  ................
	0x0160 00 00 00 00 00 00 00 00 00 00 ff ff ff ff ff ff  ................
	0x0170 ff ff 00 00 00 00 00 00 00 00 00 00 00 00 00 00  ................
	0x0180 00 00 91 00 00 00 00 00 00 00 02 00 91 08 00 00  ................
	0x0190 00 00 00 00 00 00 00 00 00 00 00 00 00 00 ff ff  ................
	0x01a0 ff ff ff ff ff ff 00 00 00 00 00 00 00 00 38 00  ..............8.
	0x01b0 00 00 00 00 00 00 46 00 00 00 00 00 00 00 01 00  ......F.........
	0x01c0 50 00 00 00 00 00 00 00 00 00 00 00 00 00 00 00  P...............
	0x01d0 00                                               .
	rel 8+8 t=1 "".Div32<1>+0
	rel 59+8 t=1 "".Div32<1>+0
	rel 111+8 t=1 "".Div32<1>+0
	rel 163+8 t=1 "".Div32<1>+0
	rel 215+8 t=1 "".Div32<1>+0
	rel 267+8 t=1 "".Div32<1>+0
	rel 318+8 t=1 "".Div32<1>+0
	rel 370+8 t=1 "".Div32<1>+0
	rel 422+8 t=1 "".Div32<1>+0
aux for "".Div32<0> SDWARFLINES size=71
	0x0000 00 09 02 00 00 00 00 00 00 00 00 04 02 03 d2 05  ................
	0x0010 14 0a a5 9d 04 03 03 9e 7e 33 06 23 06 76 06 37  ........~3.#.v.7
	0x0020 06 56 06 2d 04 02 06 03 dd 01 5a 06 37 04 03 03  .V.-......Z.7...
	0x0030 a1 7e 97 34 06 24 06 55 c6 3e 06 9b 04 02 03 de  .~.4.$.U.>......
	0x0040 01 1e 02 0a 00 01 01                             .......
	rel 3+8 t=1 "".Div32<1>+0
aux for "".Div32<0> SDWARFFCN size=178
	0x0000 03 63 6f 6d 6d 61 6e 64 2d 6c 69 6e 65 2d 61 72  .command-line-ar
	0x0010 67 75 6d 65 6e 74 73 2e 44 69 76 33 32 00 00 00  guments.Div32...
	0x0020 00 00 00 00 00 00 00 00 00 00 00 00 00 00 01 9c  ................
	0x0030 02 00 00 00 01 10 68 69 00 00 d8 05 00 00 00 00  ......hi........
	0x0040 00 00 00 00 10 6c 6f 00 00 d8 05 00 00 00 00 00  .....lo.........
	0x0050 00 00 00 10 78 00 00 d8 05 00 00 00 00 00 00 00  ....x...........
	0x0060 00 10 71 00 01 d8 05 00 00 00 00 00 00 00 00 10  ..q.............
	0x0070 72 00 01 d8 05 00 00 00 00 00 00 00 00 07 00 00  r...............
	0x0080 00 00 00 00 00 00 02 00 00 00 da 05 13 00 00 00  ................
	0x0090 00 00 00 00 00 13 00 00 00 00 00 00 00 00 13 00  ................
	0x00a0 00 00 00 00 00 00 00 0e 00 00 00 00 00 00 00 00  ................
	0x00b0 00 00                                            ..
	rel 30+8 t=1 "".Div32<1>+0
	rel 38+8 t=1 "".Div32<1>+145
	rel 60+4 t=31 go.info.uint32<0>+0
	rel 64+4 t=31 <0>+0
	rel 75+4 t=31 go.info.uint32<0>+0
	rel 79+4 t=31 <0>+51
	rel 89+4 t=31 go.info.uint32<0>+0
	rel 93+4 t=31 <0>+103
	rel 103+4 t=31 go.info.uint32<0>+0
	rel 107+4 t=31 <0>+155
	rel 117+4 t=31 go.info.uint32<0>+0
	rel 121+4 t=31 <0>+207
	rel 126+4 t=31 go.info.math/bits.Div32$abstract<0>+0
	rel 130+4 t=31 <0>+0
	rel 141+4 t=31 go.info.math/bits.Div32$abstract<0>+19
	rel 145+4 t=31 <0>+259
	rel 150+4 t=31 go.info.math/bits.Div32$abstract<0>+28
	rel 154+4 t=31 <0>+310
	rel 159+4 t=31 go.info.math/bits.Div32$abstract<0>+37
	rel 163+4 t=31 <0>+362
	rel 168+4 t=31 go.info.math/bits.Div32$abstract<0>+65
	rel 172+4 t=31 <0>+414
aux for "".Div64<0> SDWARFLOC size=259
	0x0000 ff ff ff ff ff ff ff ff 00 00 00 00 00 00 00 00  ................
	0x0010 00 00 00 00 00 00 00 00 5c 00 00 00 00 00 00 00  ........\.......
	0x0020 01 00 9c 00 00 00 00 00 00 00 00 00 00 00 00 00  ................
	0x0030 00 00 00 ff ff ff ff ff ff ff ff 00 00 00 00 00  ................
	0x0040 00 00 00 00 00 00 00 00 00 00 00 5c 00 00 00 00  ...........\....
	0x0050 00 00 00 02 00 91 08 00 00 00 00 00 00 00 00 00  ................
	0x0060 00 00 00 00 00 00 00 ff ff ff ff ff ff ff ff 00  ................
	0x0070 00 00 00 00 00 00 00 00 00 00 00 00 00 00 00 5c  ...............\
	0x0080 00 00 00 00 00 00 00 02 00 91 10 00 00 00 00 00  ................
	0x0090 00 00 00 00 00 00 00 00 00 00 00 ff ff ff ff ff  ................
	0x00a0 ff ff ff 00 00 00 00 00 00 00 00 3c 00 00 00 00  ...........<....
	0x00b0 00 00 00 4f 00 00 00 00 00 00 00 02 00 91 18 00  ...O............
	0x00c0 00 00 00 00 00 00 00 00 00 00 00 00 00 00 00 ff  ................
	0x00d0 ff ff ff ff ff ff ff 00 00 00 00 00 00 00 00 41  ...............A
	0x00e0 00 00 00 00 00 00 00 4f 00 00 00 00 00 00 00 02  .......O........
	0x00f0 00 91 20 00 00 00 00 00 00 00 00 00 00 00 00 00  .. .............
	0x0100 00 00 00                                         ...
	rel 8+8 t=1 "".Div64<1>+0
	rel 59+8 t=1 "".Div64<1>+0
	rel 111+8 t=1 "".Div64<1>+0
	rel 163+8 t=1 "".Div64<1>+0
	rel 215+8 t=1 "".Div64<1>+0
aux for "".Div64<0> SDWARFLINES size=35
	0x0000 00 09 02 00 00 00 00 00 00 00 00 04 02 03 d7 05  ................
	0x0010 14 0a a5 89 06 41 06 a5 06 41 06 08 5f 17 02 07  .....A...A.._...
	0x0020 00 01 01                                         ...
	rel 3+8 t=1 "".Div64<1>+0
aux for "".Div64<0> SDWARFFCN size=126
	0x0000 03 63 6f 6d 6d 61 6e 64 2d 6c 69 6e 65 2d 61 72  .command-line-ar
	0x0010 67 75 6d 65 6e 74 73 2e 44 69 76 36 34 00 00 00  guments.Div64...
	0x0020 00 00 00 00 00 00 00 00 00 00 00 00 00 00 01 9c  ................
	0x0030 02 00 00 00 01 10 68 69 00 00 dd 05 00 00 00 00  ......hi........
	0x0040 00 00 00 00 10 6c 6f 00 00 dd 05 00 00 00 00 00  .....lo.........
	0x0050 00 00 00 10 78 00 00 dd 05 00 00 00 00 00 00 00  ....x...........
	0x0060 00 10 71 00 01 dd 05 00 00 00 00 00 00 00 00 10  ..q.............
	0x0070 72 00 01 dd 05 00 00 00 00 00 00 00 00 00        r.............
	rel 30+8 t=1 "".Div64<1>+0
	rel 38+8 t=1 "".Div64<1>+92
	rel 60+4 t=31 go.info.uint64<0>+0
	rel 64+4 t=31 <0>+0
	rel 75+4 t=31 go.info.uint64<0>+0
	rel 79+4 t=31 <0>+51
	rel 89+4 t=31 go.info.uint64<0>+0
	rel 93+4 t=31 <0>+103
	rel 103+4 t=31 go.info.uint64<0>+0
	rel 107+4 t=31 <0>+155
	rel 117+4 t=31 go.info.uint64<0>+0
	rel 121+4 t=31 <0>+207
aux for "".Div64degenerate<0> SDWARFLOC size=155
	0x0000 ff ff ff ff ff ff ff ff 00 00 00 00 00 00 00 00  ................
	0x0010 00 00 00 00 00 00 00 00 28 00 00 00 00 00 00 00  ........(.......
	0x0020 01 00 9c 00 00 00 00 00 00 00 00 00 00 00 00 00  ................
	0x0030 00 00 00 ff ff ff ff ff ff ff ff 00 00 00 00 00  ................
	0x0040 00 00 00 00 00 00 00 00 00 00 00 28 00 00 00 00  ...........(....
	0x0050 00 00 00 02 00 91 08 00 00 00 00 00 00 00 00 00  ................
	0x0060 00 00 00 00 00 00 00 ff ff ff ff ff ff ff ff 00  ................
	0x0070 00 00 00 00 00 00 00 1f 00 00 00 00 00 00 00 28  ...............(
	0x0080 00 00 00 00 00 00 00 02 00 91 10 00 00 00 00 00  ................
	0x0090 00 00 00 00 00 00 00 00 00 00 00                 ...........
	rel 8+8 t=1 "".Div64degenerate<1>+0
	rel 59+8 t=1 "".Div64degenerate<1>+0
	rel 111+8 t=1 "".Div64degenerate<1>+0
aux for "".Div64degenerate<0> SDWARFLINES size=24
	0x0000 00 09 02 00 00 00 00 00 00 00 00 04 02 03 de 05  ................
	0x0010 14 06 73 02 1e 00 01 01                          ..s.....
	rel 3+8 t=1 "".Div64degenerate<1>+0
aux for "".Div64degenerate<0> SDWARFFCN size=106
	0x0000 03 63 6f 6d 6d 61 6e 64 2d 6c 69 6e 65 2d 61 72  .command-line-ar
	0x0010 67 75 6d 65 6e 74 73 2e 44 69 76 36 34 64 65 67  guments.Div64deg
	0x0020 65 6e 65 72 61 74 65 00 00 00 00 00 00 00 00 00  enerate.........
	0x0030 00 00 00 00 00 00 00 00 01 9c 02 00 00 00 01 10  ................
	0x0040 78 00 00 e2 05 00 00 00 00 00 00 00 00 10 71 00  x.............q.
	0x0050 01 e2 05 00 00 00 00 00 00 00 00 10 72 00 01 e2  ............r...
	0x0060 05 00 00 00 00 00 00 00 00 00                    ..........
	rel 40+8 t=1 "".Div64degenerate<1>+0
	rel 48+8 t=1 "".Div64degenerate<1>+40
	rel 69+4 t=31 go.info.uint64<0>+0
	rel 73+4 t=31 <0>+0
	rel 83+4 t=31 go.info.uint64<0>+0
	rel 87+4 t=31 <0>+51
	rel 97+4 t=31 go.info.uint64<0>+0
	rel 101+4 t=31 <0>+103
